
build/file_test.elf:     file format elf64-littleriscv


Disassembly of section .text:

0000000000010000 <main>:
   10000:	1141                	c.addi	sp,-16
   10002:	00011537          	lui	a0,0x11
   10006:	e406                	c.sdsp	ra,8(sp)
   10008:	8b850513          	addi	a0,a0,-1864 # 108b8 <_start+0x148>
   1000c:	4581                	c.li	a1,0
   1000e:	4889                	c.li	a7,2
   10010:	00000073          	ecall
   10014:	00011537          	lui	a0,0x11
   10018:	8e850513          	addi	a0,a0,-1816 # 108e8 <_start+0x178>
   1001c:	00000073          	ecall
   10020:	00000097          	auipc	ra,0x0
   10024:	054080e7          	jalr	ra,84(ra) # 10074 <test_invalid_fd>
   10028:	00011537          	lui	a0,0x11
   1002c:	91850513          	addi	a0,a0,-1768 # 10918 <_start+0x1a8>
   10030:	4581                	c.li	a1,0
   10032:	4889                	c.li	a7,2
   10034:	00000073          	ecall
   10038:	00000097          	auipc	ra,0x0
   1003c:	28e080e7          	jalr	ra,654(ra) # 102c6 <test_invalid_buffer>
   10040:	00011537          	lui	a0,0x11
   10044:	94850513          	addi	a0,a0,-1720 # 10948 <_start+0x1d8>
   10048:	4581                	c.li	a1,0
   1004a:	4889                	c.li	a7,2
   1004c:	00000073          	ecall
   10050:	00000097          	auipc	ra,0x0
   10054:	4c6080e7          	jalr	ra,1222(ra) # 10516 <test_stdout_stderr>
   10058:	00011537          	lui	a0,0x11
   1005c:	98050513          	addi	a0,a0,-1664 # 10980 <_start+0x210>
   10060:	4581                	c.li	a1,0
   10062:	4889                	c.li	a7,2
   10064:	00000073          	ecall
   10068:	4501                	c.li	a0,0
   1006a:	05d00893          	addi	a7,zero,93
   1006e:	00000073          	ecall
   10072:	a001                	c.j	10072 <main+0x72>

0000000000010074 <test_invalid_fd>:
   10074:	000105b7          	lui	a1,0x10
   10078:	7125                	c.addi16sp	sp,-416
   1007a:	557d                	c.li	a0,-1
   1007c:	7e058593          	addi	a1,a1,2016 # 107e0 <_start+0x70>
   10080:	48cd                	c.li	a7,19
   10082:	00000073          	ecall
   10086:	2501                	c.addiw	a0,0
   10088:	1e050e63          	beq	a0,zero,10284 <test_invalid_fd+0x210>
   1008c:	4e01                	c.li	t3,0
   1008e:	1e054163          	blt	a0,zero,10270 <test_invalid_fd+0x1fc>
   10092:	02010813          	addi	a6,sp,32
   10096:	8742                	c.mv	a4,a6
   10098:	8642                	c.mv	a2,a6
   1009a:	4781                	c.li	a5,0
   1009c:	48a9                	c.li	a7,10
   1009e:	031566bb          	remw	a3,a0,a7
   100a2:	0605                	c.addi	a2,1
   100a4:	0017831b          	addiw	t1,a5,1
   100a8:	85be                	c.mv	a1,a5
   100aa:	0003079b          	addiw	a5,t1,0
   100ae:	0315453b          	divw	a0,a0,a7
   100b2:	0306869b          	addiw	a3,a3,48
   100b6:	fed60fa3          	sb	a3,-1(a2)
   100ba:	f175                	c.bnez	a0,1009e <test_invalid_fd+0x2a>
   100bc:	1a0e0063          	beq	t3,zero,1025c <test_invalid_fd+0x1e8>
   100c0:	1a078793          	addi	a5,a5,416
   100c4:	0025861b          	addiw	a2,a1,2
   100c8:	978a                	c.add	a5,sp
   100ca:	02d00593          	addi	a1,zero,45
   100ce:	e8b78023          	sb	a1,-384(a5)
   100d2:	1a060793          	addi	a5,a2,416
   100d6:	978a                	c.add	a5,sp
   100d8:	e8078023          	sb	zero,-384(a5)
   100dc:	4016569b          	sraiw	a3,a2,0x1
   100e0:	87b2                	c.mv	a5,a2
   100e2:	37fd                	c.addiw	a5,-1
   100e4:	97c2                	c.add	a5,a6
   100e6:	96c2                	c.add	a3,a6
   100e8:	0007c583          	lbu	a1,0(a5)
   100ec:	00074603          	lbu	a2,0(a4)
   100f0:	0705                	c.addi	a4,1
   100f2:	17fd                	c.addi	a5,-1
   100f4:	feb70fa3          	sb	a1,-1(a4)
   100f8:	00c780a3          	sb	a2,1(a5)
   100fc:	fee696e3          	bne	a3,a4,100e8 <test_invalid_fd+0x74>
   10100:	000107b7          	lui	a5,0x10
   10104:	78878793          	addi	a5,a5,1928 # 10788 <_start+0x18>
   10108:	1118                	c.addi4spn	a4,sp,160
   1010a:	0007c683          	lbu	a3,0(a5)
   1010e:	0705                	c.addi	a4,1
   10110:	0785                	c.addi	a5,1
   10112:	fed70fa3          	sb	a3,-1(a4)
   10116:	faf5                	c.bnez	a3,1010a <test_invalid_fd+0x96>
   10118:	0a014783          	lbu	a5,160(sp)
   1011c:	18078d63          	beq	a5,zero,102b6 <test_invalid_fd+0x242>
   10120:	0a110713          	addi	a4,sp,161
   10124:	00074683          	lbu	a3,0(a4)
   10128:	87ba                	c.mv	a5,a4
   1012a:	0705                	c.addi	a4,1
   1012c:	fee5                	c.bnez	a3,10124 <test_invalid_fd+0xb0>
   1012e:	8742                	c.mv	a4,a6
   10130:	00074683          	lbu	a3,0(a4)
   10134:	0785                	c.addi	a5,1
   10136:	0705                	c.addi	a4,1
   10138:	fed78fa3          	sb	a3,-1(a5)
   1013c:	faf5                	c.bnez	a3,10130 <test_invalid_fd+0xbc>
   1013e:	0a014783          	lbu	a5,160(sp)
   10142:	18078063          	beq	a5,zero,102c2 <test_invalid_fd+0x24e>
   10146:	0a110713          	addi	a4,sp,161
   1014a:	00074683          	lbu	a3,0(a4)
   1014e:	87ba                	c.mv	a5,a4
   10150:	0705                	c.addi	a4,1
   10152:	fee5                	c.bnez	a3,1014a <test_invalid_fd+0xd6>
   10154:	00010737          	lui	a4,0x10
   10158:	7b070613          	addi	a2,a4,1968 # 107b0 <_start+0x40>
   1015c:	7b070713          	addi	a4,a4,1968
   10160:	00074683          	lbu	a3,0(a4)
   10164:	0785                	c.addi	a5,1
   10166:	0705                	c.addi	a4,1
   10168:	fed78fa3          	sb	a3,-1(a5)
   1016c:	faf5                	c.bnez	a3,10160 <test_invalid_fd+0xec>
   1016e:	1108                	c.addi4spn	a0,sp,160
   10170:	4581                	c.li	a1,0
   10172:	4889                	c.li	a7,2
   10174:	00000073          	ecall
   10178:	557d                	c.li	a0,-1
   1017a:	85c2                	c.mv	a1,a6
   1017c:	48c9                	c.li	a7,18
   1017e:	00000073          	ecall
   10182:	2501                	c.addiw	a0,0
   10184:	c975                	c.beqz	a0,10278 <test_invalid_fd+0x204>
   10186:	4e81                	c.li	t4,0
   10188:	00055563          	bge	a0,zero,10192 <test_invalid_fd+0x11e>
   1018c:	40a0053b          	subw	a0,zero,a0
   10190:	4e85                	c.li	t4,1
   10192:	868a                	c.mv	a3,sp
   10194:	8736                	c.mv	a4,a3
   10196:	88b6                	c.mv	a7,a3
   10198:	4781                	c.li	a5,0
   1019a:	4329                	c.li	t1,10
   1019c:	026565bb          	remw	a1,a0,t1
   101a0:	0885                	c.addi	a7,1
   101a2:	0017881b          	addiw	a6,a5,1
   101a6:	8e3e                	c.mv	t3,a5
   101a8:	0008079b          	addiw	a5,a6,0
   101ac:	0265453b          	divw	a0,a0,t1
   101b0:	0305859b          	addiw	a1,a1,48
   101b4:	feb88fa3          	sb	a1,-1(a7)
   101b8:	f175                	c.bnez	a0,1019c <test_invalid_fd+0x128>
   101ba:	0c0e9c63          	bne	t4,zero,10292 <test_invalid_fd+0x21e>
   101be:	1a078593          	addi	a1,a5,416
   101c2:	958a                	c.add	a1,sp
   101c4:	e6058023          	sb	zero,-416(a1)
   101c8:	4018581b          	sraiw	a6,a6,0x1
   101cc:	02080163          	beq	a6,zero,101ee <test_invalid_fd+0x17a>
   101d0:	37fd                	c.addiw	a5,-1
   101d2:	97b6                	c.add	a5,a3
   101d4:	9836                	c.add	a6,a3
   101d6:	0007c503          	lbu	a0,0(a5)
   101da:	00074583          	lbu	a1,0(a4)
   101de:	0705                	c.addi	a4,1
   101e0:	17fd                	c.addi	a5,-1
   101e2:	fea70fa3          	sb	a0,-1(a4)
   101e6:	00b780a3          	sb	a1,1(a5)
   101ea:	fee816e3          	bne	a6,a4,101d6 <test_invalid_fd+0x162>
   101ee:	000107b7          	lui	a5,0x10
   101f2:	7b878793          	addi	a5,a5,1976 # 107b8 <_start+0x48>
   101f6:	1118                	c.addi4spn	a4,sp,160
   101f8:	0007c583          	lbu	a1,0(a5)
   101fc:	0705                	c.addi	a4,1
   101fe:	0785                	c.addi	a5,1
   10200:	feb70fa3          	sb	a1,-1(a4)
   10204:	f9f5                	c.bnez	a1,101f8 <test_invalid_fd+0x184>
   10206:	0a014783          	lbu	a5,160(sp)
   1020a:	cbd5                	c.beqz	a5,102be <test_invalid_fd+0x24a>
   1020c:	0a110713          	addi	a4,sp,161
   10210:	00074583          	lbu	a1,0(a4)
   10214:	87ba                	c.mv	a5,a4
   10216:	0705                	c.addi	a4,1
   10218:	fde5                	c.bnez	a1,10210 <test_invalid_fd+0x19c>
   1021a:	8736                	c.mv	a4,a3
   1021c:	00074683          	lbu	a3,0(a4)
   10220:	0785                	c.addi	a5,1
   10222:	0705                	c.addi	a4,1
   10224:	fed78fa3          	sb	a3,-1(a5)
   10228:	faf5                	c.bnez	a3,1021c <test_invalid_fd+0x1a8>
   1022a:	0a014783          	lbu	a5,160(sp)
   1022e:	c7d1                	c.beqz	a5,102ba <test_invalid_fd+0x246>
   10230:	0a110713          	addi	a4,sp,161
   10234:	00074683          	lbu	a3,0(a4)
   10238:	87ba                	c.mv	a5,a4
   1023a:	0705                	c.addi	a4,1
   1023c:	fee5                	c.bnez	a3,10234 <test_invalid_fd+0x1c0>
   1023e:	8732                	c.mv	a4,a2
   10240:	00074683          	lbu	a3,0(a4)
   10244:	0785                	c.addi	a5,1
   10246:	0705                	c.addi	a4,1
   10248:	fed78fa3          	sb	a3,-1(a5)
   1024c:	faf5                	c.bnez	a3,10240 <test_invalid_fd+0x1cc>
   1024e:	1108                	c.addi4spn	a0,sp,160
   10250:	4581                	c.li	a1,0
   10252:	4889                	c.li	a7,2
   10254:	00000073          	ecall
   10258:	611d                	c.addi16sp	sp,416
   1025a:	8082                	c.jr	ra
   1025c:	1a078693          	addi	a3,a5,416
   10260:	968a                	c.add	a3,sp
   10262:	e8068023          	sb	zero,-384(a3)
   10266:	4013569b          	sraiw	a3,t1,0x1
   1026a:	e6069ce3          	bne	a3,zero,100e2 <test_invalid_fd+0x6e>
   1026e:	bd49                	c.j	10100 <test_invalid_fd+0x8c>
   10270:	40a0053b          	subw	a0,zero,a0
   10274:	4e05                	c.li	t3,1
   10276:	bd31                	c.j	10092 <test_invalid_fd+0x1e>
   10278:	03000793          	addi	a5,zero,48
   1027c:	00f11023          	sh	a5,0(sp)
   10280:	868a                	c.mv	a3,sp
   10282:	b7b5                	c.j	101ee <test_invalid_fd+0x17a>
   10284:	03000793          	addi	a5,zero,48
   10288:	02f11023          	sh	a5,32(sp)
   1028c:	02010813          	addi	a6,sp,32
   10290:	bd85                	c.j	10100 <test_invalid_fd+0x8c>
   10292:	1a078793          	addi	a5,a5,416
   10296:	002e059b          	addiw	a1,t3,2
   1029a:	978a                	c.add	a5,sp
   1029c:	02d00513          	addi	a0,zero,45
   102a0:	e6a78023          	sb	a0,-416(a5)
   102a4:	1a058793          	addi	a5,a1,416
   102a8:	978a                	c.add	a5,sp
   102aa:	e6078023          	sb	zero,-416(a5)
   102ae:	4015d81b          	sraiw	a6,a1,0x1
   102b2:	87ae                	c.mv	a5,a1
   102b4:	bf31                	c.j	101d0 <test_invalid_fd+0x15c>
   102b6:	111c                	c.addi4spn	a5,sp,160
   102b8:	bd9d                	c.j	1012e <test_invalid_fd+0xba>
   102ba:	111c                	c.addi4spn	a5,sp,160
   102bc:	b749                	c.j	1023e <test_invalid_fd+0x1ca>
   102be:	111c                	c.addi4spn	a5,sp,160
   102c0:	bfa9                	c.j	1021a <test_invalid_fd+0x1a6>
   102c2:	111c                	c.addi4spn	a5,sp,160
   102c4:	bd41                	c.j	10154 <test_invalid_fd+0xe0>

00000000000102c6 <test_invalid_buffer>:
   102c6:	712d                	c.addi16sp	sp,-288
   102c8:	4505                	c.li	a0,1
   102ca:	4581                	c.li	a1,0
   102cc:	48cd                	c.li	a7,19
   102ce:	00000073          	ecall
   102d2:	2501                	c.addiw	a0,0
   102d4:	1e050a63          	beq	a0,zero,104c8 <test_invalid_buffer+0x202>
   102d8:	4e01                	c.li	t3,0
   102da:	1c054e63          	blt	a0,zero,104b6 <test_invalid_buffer+0x1f0>
   102de:	870a                	c.mv	a4,sp
   102e0:	86ba                	c.mv	a3,a4
   102e2:	85ba                	c.mv	a1,a4
   102e4:	4781                	c.li	a5,0
   102e6:	48a9                	c.li	a7,10
   102e8:	0315663b          	remw	a2,a0,a7
   102ec:	0585                	c.addi	a1,1
   102ee:	0017831b          	addiw	t1,a5,1
   102f2:	883e                	c.mv	a6,a5
   102f4:	0003079b          	addiw	a5,t1,0
   102f8:	0315453b          	divw	a0,a0,a7
   102fc:	0306061b          	addiw	a2,a2,48
   10300:	fec58fa3          	sb	a2,-1(a1)
   10304:	f175                	c.bnez	a0,102e8 <test_invalid_buffer+0x22>
   10306:	180e0e63          	beq	t3,zero,104a2 <test_invalid_buffer+0x1dc>
   1030a:	12078793          	addi	a5,a5,288
   1030e:	0028059b          	addiw	a1,a6,2
   10312:	978a                	c.add	a5,sp
   10314:	02d00513          	addi	a0,zero,45
   10318:	eea78023          	sb	a0,-288(a5)
   1031c:	12058793          	addi	a5,a1,288
   10320:	978a                	c.add	a5,sp
   10322:	ee078023          	sb	zero,-288(a5)
   10326:	4015d61b          	sraiw	a2,a1,0x1
   1032a:	87ae                	c.mv	a5,a1
   1032c:	37fd                	c.addiw	a5,-1
   1032e:	97ba                	c.add	a5,a4
   10330:	963a                	c.add	a2,a4
   10332:	0007c503          	lbu	a0,0(a5)
   10336:	0006c583          	lbu	a1,0(a3)
   1033a:	0685                	c.addi	a3,1
   1033c:	17fd                	c.addi	a5,-1
   1033e:	fea68fa3          	sb	a0,-1(a3)
   10342:	00b780a3          	sb	a1,1(a5)
   10346:	fed616e3          	bne	a2,a3,10332 <test_invalid_buffer+0x6c>
   1034a:	000107b7          	lui	a5,0x10
   1034e:	7e878793          	addi	a5,a5,2024 # 107e8 <_start+0x78>
   10352:	1014                	c.addi4spn	a3,sp,32
   10354:	0007c603          	lbu	a2,0(a5)
   10358:	0685                	c.addi	a3,1
   1035a:	0785                	c.addi	a5,1
   1035c:	fec68fa3          	sb	a2,-1(a3)
   10360:	fa75                	c.bnez	a2,10354 <test_invalid_buffer+0x8e>
   10362:	02014783          	lbu	a5,32(sp)
   10366:	18078963          	beq	a5,zero,104f8 <test_invalid_buffer+0x232>
   1036a:	02110693          	addi	a3,sp,33
   1036e:	0006c603          	lbu	a2,0(a3)
   10372:	87b6                	c.mv	a5,a3
   10374:	0685                	c.addi	a3,1
   10376:	fe65                	c.bnez	a2,1036e <test_invalid_buffer+0xa8>
   10378:	86ba                	c.mv	a3,a4
   1037a:	0006c603          	lbu	a2,0(a3)
   1037e:	0785                	c.addi	a5,1
   10380:	0685                	c.addi	a3,1
   10382:	fec78fa3          	sb	a2,-1(a5)
   10386:	fa75                	c.bnez	a2,1037a <test_invalid_buffer+0xb4>
   10388:	02014783          	lbu	a5,32(sp)
   1038c:	18078363          	beq	a5,zero,10512 <test_invalid_buffer+0x24c>
   10390:	02110693          	addi	a3,sp,33
   10394:	0006c603          	lbu	a2,0(a3)
   10398:	87b6                	c.mv	a5,a3
   1039a:	0685                	c.addi	a3,1
   1039c:	fe65                	c.bnez	a2,10394 <test_invalid_buffer+0xce>
   1039e:	000106b7          	lui	a3,0x10
   103a2:	7b068613          	addi	a2,a3,1968 # 107b0 <_start+0x40>
   103a6:	7b068693          	addi	a3,a3,1968
   103aa:	0006c583          	lbu	a1,0(a3)
   103ae:	0785                	c.addi	a5,1
   103b0:	0685                	c.addi	a3,1
   103b2:	feb78fa3          	sb	a1,-1(a5)
   103b6:	f9f5                	c.bnez	a1,103aa <test_invalid_buffer+0xe4>
   103b8:	1008                	c.addi4spn	a0,sp,32
   103ba:	4889                	c.li	a7,2
   103bc:	00000073          	ecall
   103c0:	55fd                	c.li	a1,-1
   103c2:	4501                	c.li	a0,0
   103c4:	9181                	c.srli	a1,0x20
   103c6:	48c9                	c.li	a7,18
   103c8:	00000073          	ecall
   103cc:	2501                	c.addiw	a0,0
   103ce:	c965                	c.beqz	a0,104be <test_invalid_buffer+0x1f8>
   103d0:	4e81                	c.li	t4,0
   103d2:	00055563          	bge	a0,zero,103dc <test_invalid_buffer+0x116>
   103d6:	40a0053b          	subw	a0,zero,a0
   103da:	4e85                	c.li	t4,1
   103dc:	86ba                	c.mv	a3,a4
   103de:	88ba                	c.mv	a7,a4
   103e0:	4781                	c.li	a5,0
   103e2:	4329                	c.li	t1,10
   103e4:	026565bb          	remw	a1,a0,t1
   103e8:	0885                	c.addi	a7,1
   103ea:	0017881b          	addiw	a6,a5,1
   103ee:	8e3e                	c.mv	t3,a5
   103f0:	0008079b          	addiw	a5,a6,0
   103f4:	0265453b          	divw	a0,a0,t1
   103f8:	0305859b          	addiw	a1,a1,48
   103fc:	feb88fa3          	sb	a1,-1(a7)
   10400:	f175                	c.bnez	a0,103e4 <test_invalid_buffer+0x11e>
   10402:	0c0e9963          	bne	t4,zero,104d4 <test_invalid_buffer+0x20e>
   10406:	12078593          	addi	a1,a5,288
   1040a:	958a                	c.add	a1,sp
   1040c:	ee058023          	sb	zero,-288(a1)
   10410:	4018581b          	sraiw	a6,a6,0x1
   10414:	02080163          	beq	a6,zero,10436 <test_invalid_buffer+0x170>
   10418:	37fd                	c.addiw	a5,-1
   1041a:	97ba                	c.add	a5,a4
   1041c:	983a                	c.add	a6,a4
   1041e:	0007c503          	lbu	a0,0(a5)
   10422:	0006c583          	lbu	a1,0(a3)
   10426:	0685                	c.addi	a3,1
   10428:	17fd                	c.addi	a5,-1
   1042a:	fea68fa3          	sb	a0,-1(a3)
   1042e:	00b780a3          	sb	a1,1(a5)
   10432:	fed816e3          	bne	a6,a3,1041e <test_invalid_buffer+0x158>
   10436:	000117b7          	lui	a5,0x11
   1043a:	81078793          	addi	a5,a5,-2032 # 10810 <_start+0xa0>
   1043e:	1014                	c.addi4spn	a3,sp,32
   10440:	0007c583          	lbu	a1,0(a5)
   10444:	0685                	c.addi	a3,1
   10446:	0785                	c.addi	a5,1
   10448:	feb68fa3          	sb	a1,-1(a3)
   1044c:	f9f5                	c.bnez	a1,10440 <test_invalid_buffer+0x17a>
   1044e:	02014783          	lbu	a5,32(sp)
   10452:	c7dd                	c.beqz	a5,10500 <test_invalid_buffer+0x23a>
   10454:	02110693          	addi	a3,sp,33
   10458:	0006c583          	lbu	a1,0(a3)
   1045c:	87b6                	c.mv	a5,a3
   1045e:	0685                	c.addi	a3,1
   10460:	fde5                	c.bnez	a1,10458 <test_invalid_buffer+0x192>
   10462:	00074683          	lbu	a3,0(a4)
   10466:	0785                	c.addi	a5,1
   10468:	0705                	c.addi	a4,1
   1046a:	fed78fa3          	sb	a3,-1(a5)
   1046e:	faf5                	c.bnez	a3,10462 <test_invalid_buffer+0x19c>
   10470:	02014783          	lbu	a5,32(sp)
   10474:	c7c1                	c.beqz	a5,104fc <test_invalid_buffer+0x236>
   10476:	02110713          	addi	a4,sp,33
   1047a:	00074683          	lbu	a3,0(a4)
   1047e:	87ba                	c.mv	a5,a4
   10480:	0705                	c.addi	a4,1
   10482:	fee5                	c.bnez	a3,1047a <test_invalid_buffer+0x1b4>
   10484:	8732                	c.mv	a4,a2
   10486:	00074683          	lbu	a3,0(a4)
   1048a:	0785                	c.addi	a5,1
   1048c:	0705                	c.addi	a4,1
   1048e:	fed78fa3          	sb	a3,-1(a5)
   10492:	faf5                	c.bnez	a3,10486 <test_invalid_buffer+0x1c0>
   10494:	1008                	c.addi4spn	a0,sp,32
   10496:	4581                	c.li	a1,0
   10498:	4889                	c.li	a7,2
   1049a:	00000073          	ecall
   1049e:	6115                	c.addi16sp	sp,288
   104a0:	8082                	c.jr	ra
   104a2:	12078613          	addi	a2,a5,288
   104a6:	960a                	c.add	a2,sp
   104a8:	ee060023          	sb	zero,-288(a2)
   104ac:	4013561b          	sraiw	a2,t1,0x1
   104b0:	e6061ee3          	bne	a2,zero,1032c <test_invalid_buffer+0x66>
   104b4:	bd59                	c.j	1034a <test_invalid_buffer+0x84>
   104b6:	40a0053b          	subw	a0,zero,a0
   104ba:	4e05                	c.li	t3,1
   104bc:	b50d                	c.j	102de <test_invalid_buffer+0x18>
   104be:	03000793          	addi	a5,zero,48
   104c2:	00f11023          	sh	a5,0(sp)
   104c6:	bf85                	c.j	10436 <test_invalid_buffer+0x170>
   104c8:	03000793          	addi	a5,zero,48
   104cc:	00f11023          	sh	a5,0(sp)
   104d0:	870a                	c.mv	a4,sp
   104d2:	bda5                	c.j	1034a <test_invalid_buffer+0x84>
   104d4:	12078793          	addi	a5,a5,288
   104d8:	002e059b          	addiw	a1,t3,2
   104dc:	978a                	c.add	a5,sp
   104de:	02d00513          	addi	a0,zero,45
   104e2:	eea78023          	sb	a0,-288(a5)
   104e6:	12058793          	addi	a5,a1,288
   104ea:	978a                	c.add	a5,sp
   104ec:	ee078023          	sb	zero,-288(a5)
   104f0:	4015d81b          	sraiw	a6,a1,0x1
   104f4:	87ae                	c.mv	a5,a1
   104f6:	b70d                	c.j	10418 <test_invalid_buffer+0x152>
   104f8:	101c                	c.addi4spn	a5,sp,32
   104fa:	bdbd                	c.j	10378 <test_invalid_buffer+0xb2>
   104fc:	101c                	c.addi4spn	a5,sp,32
   104fe:	b759                	c.j	10484 <test_invalid_buffer+0x1be>
   10500:	00074683          	lbu	a3,0(a4)
   10504:	101c                	c.addi4spn	a5,sp,32
   10506:	0785                	c.addi	a5,1
   10508:	fed78fa3          	sb	a3,-1(a5)
   1050c:	0705                	c.addi	a4,1
   1050e:	fab1                	c.bnez	a3,10462 <test_invalid_buffer+0x19c>
   10510:	b785                	c.j	10470 <test_invalid_buffer+0x1aa>
   10512:	101c                	c.addi4spn	a5,sp,32
   10514:	b569                	c.j	1039e <test_invalid_buffer+0xd8>

0000000000010516 <test_stdout_stderr>:
   10516:	000115b7          	lui	a1,0x11
   1051a:	712d                	c.addi16sp	sp,-288
   1051c:	4505                	c.li	a0,1
   1051e:	88858593          	addi	a1,a1,-1912 # 10888 <_start+0x118>
   10522:	48cd                	c.li	a7,19
   10524:	00000073          	ecall
   10528:	2501                	c.addiw	a0,0
   1052a:	1e050c63          	beq	a0,zero,10722 <test_stdout_stderr+0x20c>
   1052e:	4e01                	c.li	t3,0
   10530:	1e054063          	blt	a0,zero,10710 <test_stdout_stderr+0x1fa>
   10534:	870a                	c.mv	a4,sp
   10536:	86ba                	c.mv	a3,a4
   10538:	85ba                	c.mv	a1,a4
   1053a:	4781                	c.li	a5,0
   1053c:	48a9                	c.li	a7,10
   1053e:	0315663b          	remw	a2,a0,a7
   10542:	0585                	c.addi	a1,1
   10544:	0017831b          	addiw	t1,a5,1
   10548:	883e                	c.mv	a6,a5
   1054a:	0003079b          	addiw	a5,t1,0
   1054e:	0315453b          	divw	a0,a0,a7
   10552:	0306061b          	addiw	a2,a2,48
   10556:	fec58fa3          	sb	a2,-1(a1)
   1055a:	f175                	c.bnez	a0,1053e <test_stdout_stderr+0x28>
   1055c:	1a0e0063          	beq	t3,zero,106fc <test_stdout_stderr+0x1e6>
   10560:	12078793          	addi	a5,a5,288
   10564:	0028059b          	addiw	a1,a6,2
   10568:	978a                	c.add	a5,sp
   1056a:	02d00513          	addi	a0,zero,45
   1056e:	eea78023          	sb	a0,-288(a5)
   10572:	12058793          	addi	a5,a1,288
   10576:	978a                	c.add	a5,sp
   10578:	ee078023          	sb	zero,-288(a5)
   1057c:	4015d61b          	sraiw	a2,a1,0x1
   10580:	87ae                	c.mv	a5,a1
   10582:	37fd                	c.addiw	a5,-1
   10584:	97ba                	c.add	a5,a4
   10586:	963a                	c.add	a2,a4
   10588:	0007c503          	lbu	a0,0(a5)
   1058c:	0006c583          	lbu	a1,0(a3)
   10590:	0685                	c.addi	a3,1
   10592:	17fd                	c.addi	a5,-1
   10594:	fea68fa3          	sb	a0,-1(a3)
   10598:	00b780a3          	sb	a1,1(a5)
   1059c:	fed616e3          	bne	a2,a3,10588 <test_stdout_stderr+0x72>
   105a0:	000117b7          	lui	a5,0x11
   105a4:	83878793          	addi	a5,a5,-1992 # 10838 <_start+0xc8>
   105a8:	1014                	c.addi4spn	a3,sp,32
   105aa:	0007c603          	lbu	a2,0(a5)
   105ae:	0685                	c.addi	a3,1
   105b0:	0785                	c.addi	a5,1
   105b2:	fec68fa3          	sb	a2,-1(a3)
   105b6:	fa75                	c.bnez	a2,105aa <test_stdout_stderr+0x94>
   105b8:	02014783          	lbu	a5,32(sp)
   105bc:	18078b63          	beq	a5,zero,10752 <test_stdout_stderr+0x23c>
   105c0:	02110693          	addi	a3,sp,33
   105c4:	0006c603          	lbu	a2,0(a3)
   105c8:	87b6                	c.mv	a5,a3
   105ca:	0685                	c.addi	a3,1
   105cc:	fe65                	c.bnez	a2,105c4 <test_stdout_stderr+0xae>
   105ce:	86ba                	c.mv	a3,a4
   105d0:	0006c603          	lbu	a2,0(a3)
   105d4:	0785                	c.addi	a5,1
   105d6:	0685                	c.addi	a3,1
   105d8:	fec78fa3          	sb	a2,-1(a5)
   105dc:	fa75                	c.bnez	a2,105d0 <test_stdout_stderr+0xba>
   105de:	02014783          	lbu	a5,32(sp)
   105e2:	18078563          	beq	a5,zero,1076c <test_stdout_stderr+0x256>
   105e6:	02110693          	addi	a3,sp,33
   105ea:	0006c603          	lbu	a2,0(a3)
   105ee:	87b6                	c.mv	a5,a3
   105f0:	0685                	c.addi	a3,1
   105f2:	fe65                	c.bnez	a2,105ea <test_stdout_stderr+0xd4>
   105f4:	000106b7          	lui	a3,0x10
   105f8:	7b068613          	addi	a2,a3,1968 # 107b0 <_start+0x40>
   105fc:	7b068693          	addi	a3,a3,1968
   10600:	0006c583          	lbu	a1,0(a3)
   10604:	0785                	c.addi	a5,1
   10606:	0685                	c.addi	a3,1
   10608:	feb78fa3          	sb	a1,-1(a5)
   1060c:	f9f5                	c.bnez	a1,10600 <test_stdout_stderr+0xea>
   1060e:	1008                	c.addi4spn	a0,sp,32
   10610:	4889                	c.li	a7,2
   10612:	00000073          	ecall
   10616:	000115b7          	lui	a1,0x11
   1061a:	4509                	c.li	a0,2
   1061c:	8a058593          	addi	a1,a1,-1888 # 108a0 <_start+0x130>
   10620:	48cd                	c.li	a7,19
   10622:	00000073          	ecall
   10626:	2501                	c.addiw	a0,0
   10628:	c965                	c.beqz	a0,10718 <test_stdout_stderr+0x202>
   1062a:	4e81                	c.li	t4,0
   1062c:	00055563          	bge	a0,zero,10636 <test_stdout_stderr+0x120>
   10630:	40a0053b          	subw	a0,zero,a0
   10634:	4e85                	c.li	t4,1
   10636:	86ba                	c.mv	a3,a4
   10638:	88ba                	c.mv	a7,a4
   1063a:	4781                	c.li	a5,0
   1063c:	4329                	c.li	t1,10
   1063e:	026565bb          	remw	a1,a0,t1
   10642:	0885                	c.addi	a7,1
   10644:	0017881b          	addiw	a6,a5,1
   10648:	8e3e                	c.mv	t3,a5
   1064a:	0008079b          	addiw	a5,a6,0
   1064e:	0265453b          	divw	a0,a0,t1
   10652:	0305859b          	addiw	a1,a1,48
   10656:	feb88fa3          	sb	a1,-1(a7)
   1065a:	f175                	c.bnez	a0,1063e <test_stdout_stderr+0x128>
   1065c:	0c0e9963          	bne	t4,zero,1072e <test_stdout_stderr+0x218>
   10660:	12078593          	addi	a1,a5,288
   10664:	958a                	c.add	a1,sp
   10666:	ee058023          	sb	zero,-288(a1)
   1066a:	4018581b          	sraiw	a6,a6,0x1
   1066e:	02080163          	beq	a6,zero,10690 <test_stdout_stderr+0x17a>
   10672:	37fd                	c.addiw	a5,-1
   10674:	97ba                	c.add	a5,a4
   10676:	983a                	c.add	a6,a4
   10678:	0007c503          	lbu	a0,0(a5)
   1067c:	0006c583          	lbu	a1,0(a3)
   10680:	0685                	c.addi	a3,1
   10682:	17fd                	c.addi	a5,-1
   10684:	fea68fa3          	sb	a0,-1(a3)
   10688:	00b780a3          	sb	a1,1(a5)
   1068c:	fed816e3          	bne	a6,a3,10678 <test_stdout_stderr+0x162>
   10690:	000117b7          	lui	a5,0x11
   10694:	86078793          	addi	a5,a5,-1952 # 10860 <_start+0xf0>
   10698:	1014                	c.addi4spn	a3,sp,32
   1069a:	0007c583          	lbu	a1,0(a5)
   1069e:	0685                	c.addi	a3,1
   106a0:	0785                	c.addi	a5,1
   106a2:	feb68fa3          	sb	a1,-1(a3)
   106a6:	f9f5                	c.bnez	a1,1069a <test_stdout_stderr+0x184>
   106a8:	02014783          	lbu	a5,32(sp)
   106ac:	c7dd                	c.beqz	a5,1075a <test_stdout_stderr+0x244>
   106ae:	02110693          	addi	a3,sp,33
   106b2:	0006c583          	lbu	a1,0(a3)
   106b6:	87b6                	c.mv	a5,a3
   106b8:	0685                	c.addi	a3,1
   106ba:	fde5                	c.bnez	a1,106b2 <test_stdout_stderr+0x19c>
   106bc:	00074683          	lbu	a3,0(a4)
   106c0:	0785                	c.addi	a5,1
   106c2:	0705                	c.addi	a4,1
   106c4:	fed78fa3          	sb	a3,-1(a5)
   106c8:	faf5                	c.bnez	a3,106bc <test_stdout_stderr+0x1a6>
   106ca:	02014783          	lbu	a5,32(sp)
   106ce:	c7c1                	c.beqz	a5,10756 <test_stdout_stderr+0x240>
   106d0:	02110713          	addi	a4,sp,33
   106d4:	00074683          	lbu	a3,0(a4)
   106d8:	87ba                	c.mv	a5,a4
   106da:	0705                	c.addi	a4,1
   106dc:	fee5                	c.bnez	a3,106d4 <test_stdout_stderr+0x1be>
   106de:	8732                	c.mv	a4,a2
   106e0:	00074683          	lbu	a3,0(a4)
   106e4:	0785                	c.addi	a5,1
   106e6:	0705                	c.addi	a4,1
   106e8:	fed78fa3          	sb	a3,-1(a5)
   106ec:	faf5                	c.bnez	a3,106e0 <test_stdout_stderr+0x1ca>
   106ee:	1008                	c.addi4spn	a0,sp,32
   106f0:	4581                	c.li	a1,0
   106f2:	4889                	c.li	a7,2
   106f4:	00000073          	ecall
   106f8:	6115                	c.addi16sp	sp,288
   106fa:	8082                	c.jr	ra
   106fc:	12078613          	addi	a2,a5,288
   10700:	960a                	c.add	a2,sp
   10702:	ee060023          	sb	zero,-288(a2)
   10706:	4013561b          	sraiw	a2,t1,0x1
   1070a:	e6061ce3          	bne	a2,zero,10582 <test_stdout_stderr+0x6c>
   1070e:	bd49                	c.j	105a0 <test_stdout_stderr+0x8a>
   10710:	40a0053b          	subw	a0,zero,a0
   10714:	4e05                	c.li	t3,1
   10716:	bd39                	c.j	10534 <test_stdout_stderr+0x1e>
   10718:	03000793          	addi	a5,zero,48
   1071c:	00f11023          	sh	a5,0(sp)
   10720:	bf85                	c.j	10690 <test_stdout_stderr+0x17a>
   10722:	03000793          	addi	a5,zero,48
   10726:	00f11023          	sh	a5,0(sp)
   1072a:	870a                	c.mv	a4,sp
   1072c:	bd95                	c.j	105a0 <test_stdout_stderr+0x8a>
   1072e:	12078793          	addi	a5,a5,288
   10732:	002e059b          	addiw	a1,t3,2
   10736:	978a                	c.add	a5,sp
   10738:	02d00513          	addi	a0,zero,45
   1073c:	eea78023          	sb	a0,-288(a5)
   10740:	12058793          	addi	a5,a1,288
   10744:	978a                	c.add	a5,sp
   10746:	ee078023          	sb	zero,-288(a5)
   1074a:	4015d81b          	sraiw	a6,a1,0x1
   1074e:	87ae                	c.mv	a5,a1
   10750:	b70d                	c.j	10672 <test_stdout_stderr+0x15c>
   10752:	101c                	c.addi4spn	a5,sp,32
   10754:	bdad                	c.j	105ce <test_stdout_stderr+0xb8>
   10756:	101c                	c.addi4spn	a5,sp,32
   10758:	b759                	c.j	106de <test_stdout_stderr+0x1c8>
   1075a:	00074683          	lbu	a3,0(a4)
   1075e:	101c                	c.addi4spn	a5,sp,32
   10760:	0785                	c.addi	a5,1
   10762:	fed78fa3          	sb	a3,-1(a5)
   10766:	0705                	c.addi	a4,1
   10768:	fab1                	c.bnez	a3,106bc <test_stdout_stderr+0x1a6>
   1076a:	b785                	c.j	106ca <test_stdout_stderr+0x1b4>
   1076c:	101c                	c.addi4spn	a5,sp,32
   1076e:	b559                	c.j	105f4 <test_stdout_stderr+0xde>

0000000000010770 <_start>:
   10770:	1141                	c.addi	sp,-16
   10772:	e406                	c.sdsp	ra,8(sp)
   10774:	00000097          	auipc	ra,0x0
   10778:	88c080e7          	jalr	ra,-1908(ra) # 10000 <main>
   1077c:	4581                	c.li	a1,0
   1077e:	05d00893          	addi	a7,zero,93
   10782:	00000073          	ecall
   10786:	a001                	c.j	10786 <_start+0x16>
