
build/kill_user_test.elf:     file format elf64-littleriscv


Disassembly of section .text:

0000000000010000 <main>:
   10000:	7169                	c.addi16sp	sp,-304
   10002:	00010537          	lui	a0,0x10
   10006:	f606                	c.sdsp	ra,296(sp)
   10008:	f222                	c.sdsp	s0,288(sp)
   1000a:	30850513          	addi	a0,a0,776 # 10308 <_start+0x3e>
   1000e:	4581                	c.li	a1,0
   10010:	4889                	c.li	a7,2
   10012:	00000073          	ecall
   10016:	4501                	c.li	a0,0
   10018:	0dc00893          	addi	a7,zero,220
   1001c:	00000073          	ecall
   10020:	0005041b          	addiw	s0,a0,0
   10024:	14041363          	bne	s0,zero,1016a <main+0x16a>
   10028:	4501                	c.li	a0,0
   1002a:	0ac00893          	addi	a7,zero,172
   1002e:	00000073          	ecall
   10032:	000106b7          	lui	a3,0x10
   10036:	000105b7          	lui	a1,0x10
   1003a:	0005061b          	addiw	a2,a0,0
   1003e:	33868693          	addi	a3,a3,824 # 10338 <_start+0x6e>
   10042:	1008                	c.addi4spn	a0,sp,32
   10044:	36058593          	addi	a1,a1,864 # 10360 <_start+0x96>
   10048:	00000097          	auipc	ra,0x0
   1004c:	188080e7          	jalr	ra,392(ra) # 101d0 <usr_build_string_with_int>
   10050:	1008                	c.addi4spn	a0,sp,32
   10052:	4581                	c.li	a1,0
   10054:	4889                	c.li	a7,2
   10056:	00000073          	ecall
   1005a:	6805                	c.lui	a6,0x1
   1005c:	00010eb7          	lui	t4,0x10
   10060:	00010e37          	lui	t3,0x10
   10064:	38880813          	addi	a6,a6,904 # 1388 <main-0xec78>
   10068:	2e8e8e93          	addi	t4,t4,744 # 102e8 <_start+0x1e>
   1006c:	300e0e13          	addi	t3,t3,768 # 10300 <_start+0x36>
   10070:	4329                	c.li	t1,10
   10072:	03000f13          	addi	t5,zero,48
   10076:	387d                	c.addiw	a6,-1
   10078:	026866bb          	remw	a3,a6,t1
   1007c:	feed                	c.bnez	a3,10076 <main+0x76>
   1007e:	0c080f63          	beq	a6,zero,1015c <main+0x15c>
   10082:	870a                	c.mv	a4,sp
   10084:	888a                	c.mv	a7,sp
   10086:	8642                	c.mv	a2,a6
   10088:	026665bb          	remw	a1,a2,t1
   1008c:	0885                	c.addi	a7,1
   1008e:	0016851b          	addiw	a0,a3,1
   10092:	87b6                	c.mv	a5,a3
   10094:	0005069b          	addiw	a3,a0,0
   10098:	0266463b          	divw	a2,a2,t1
   1009c:	0305859b          	addiw	a1,a1,48
   100a0:	feb88fa3          	sb	a1,-1(a7)
   100a4:	f275                	c.bnez	a2,10088 <main+0x88>
   100a6:	12068693          	addi	a3,a3,288
   100aa:	968a                	c.add	a3,sp
   100ac:	ee068023          	sb	zero,-288(a3)
   100b0:	4015551b          	sraiw	a0,a0,0x1
   100b4:	cd19                	c.beqz	a0,100d2 <main+0xd2>
   100b6:	978a                	c.add	a5,sp
   100b8:	950a                	c.add	a0,sp
   100ba:	0007c603          	lbu	a2,0(a5)
   100be:	00074683          	lbu	a3,0(a4)
   100c2:	0705                	c.addi	a4,1
   100c4:	17fd                	c.addi	a5,-1
   100c6:	fec70fa3          	sb	a2,-1(a4)
   100ca:	00d780a3          	sb	a3,1(a5)
   100ce:	fea716e3          	bne	a4,a0,100ba <main+0xba>
   100d2:	8776                	c.mv	a4,t4
   100d4:	101c                	c.addi4spn	a5,sp,32
   100d6:	00074683          	lbu	a3,0(a4)
   100da:	0785                	c.addi	a5,1
   100dc:	0705                	c.addi	a4,1
   100de:	fed78fa3          	sb	a3,-1(a5)
   100e2:	faf5                	c.bnez	a3,100d6 <main+0xd6>
   100e4:	02014783          	lbu	a5,32(sp)
   100e8:	cfbd                	c.beqz	a5,10166 <main+0x166>
   100ea:	02110713          	addi	a4,sp,33
   100ee:	00074683          	lbu	a3,0(a4)
   100f2:	87ba                	c.mv	a5,a4
   100f4:	0705                	c.addi	a4,1
   100f6:	fee5                	c.bnez	a3,100ee <main+0xee>
   100f8:	870a                	c.mv	a4,sp
   100fa:	00074683          	lbu	a3,0(a4)
   100fe:	0785                	c.addi	a5,1
   10100:	0705                	c.addi	a4,1
   10102:	fed78fa3          	sb	a3,-1(a5)
   10106:	faf5                	c.bnez	a3,100fa <main+0xfa>
   10108:	02014783          	lbu	a5,32(sp)
   1010c:	cbb9                	c.beqz	a5,10162 <main+0x162>
   1010e:	02110713          	addi	a4,sp,33
   10112:	00074683          	lbu	a3,0(a4)
   10116:	87ba                	c.mv	a5,a4
   10118:	0705                	c.addi	a4,1
   1011a:	fee5                	c.bnez	a3,10112 <main+0x112>
   1011c:	8772                	c.mv	a4,t3
   1011e:	00074683          	lbu	a3,0(a4)
   10122:	0785                	c.addi	a5,1
   10124:	0705                	c.addi	a4,1
   10126:	fed78fa3          	sb	a3,-1(a5)
   1012a:	faf5                	c.bnez	a3,1011e <main+0x11e>
   1012c:	1008                	c.addi4spn	a0,sp,32
   1012e:	4581                	c.li	a1,0
   10130:	4889                	c.li	a7,2
   10132:	00000073          	ecall
   10136:	4501                	c.li	a0,0
   10138:	0de00893          	addi	a7,zero,222
   1013c:	00000073          	ecall
   10140:	f2081be3          	bne	a6,zero,10076 <main+0x76>
   10144:	00010537          	lui	a0,0x10
   10148:	37050513          	addi	a0,a0,880 # 10370 <_start+0xa6>
   1014c:	4889                	c.li	a7,2
   1014e:	00000073          	ecall
   10152:	70b2                	c.ldsp	ra,296(sp)
   10154:	7412                	c.ldsp	s0,288(sp)
   10156:	4501                	c.li	a0,0
   10158:	6155                	c.addi16sp	sp,304
   1015a:	8082                	c.jr	ra
   1015c:	01e11023          	sh	t5,0(sp)
   10160:	bf8d                	c.j	100d2 <main+0xd2>
   10162:	101c                	c.addi4spn	a5,sp,32
   10164:	bf65                	c.j	1011c <main+0x11c>
   10166:	101c                	c.addi4spn	a5,sp,32
   10168:	bf41                	c.j	100f8 <main+0xf8>
   1016a:	000106b7          	lui	a3,0x10
   1016e:	000105b7          	lui	a1,0x10
   10172:	1008                	c.addi4spn	a0,sp,32
   10174:	30068693          	addi	a3,a3,768 # 10300 <_start+0x36>
   10178:	8622                	c.mv	a2,s0
   1017a:	3a858593          	addi	a1,a1,936 # 103a8 <_start+0xde>
   1017e:	00000097          	auipc	ra,0x0
   10182:	052080e7          	jalr	ra,82(ra) # 101d0 <usr_build_string_with_int>
   10186:	1008                	c.addi4spn	a0,sp,32
   10188:	4581                	c.li	a1,0
   1018a:	4889                	c.li	a7,2
   1018c:	00000073          	ecall
   10190:	08100893          	addi	a7,zero,129
   10194:	c002                	c.swsp	zero,0(sp)
   10196:	8522                	c.mv	a0,s0
   10198:	00000073          	ecall
   1019c:	0dd00893          	addi	a7,zero,221
   101a0:	850a                	c.mv	a0,sp
   101a2:	00000073          	ecall
   101a6:	4702                	c.lwsp	a4,0(sp)
   101a8:	08100793          	addi	a5,zero,129
   101ac:	00f70a63          	beq	a4,a5,101c0 <main+0x1c0>
   101b0:	00010537          	lui	a0,0x10
   101b4:	3f850513          	addi	a0,a0,1016 # 103f8 <_start+0x12e>
   101b8:	4889                	c.li	a7,2
   101ba:	00000073          	ecall
   101be:	bf51                	c.j	10152 <main+0x152>
   101c0:	00010537          	lui	a0,0x10
   101c4:	3d050513          	addi	a0,a0,976 # 103d0 <_start+0x106>
   101c8:	4889                	c.li	a7,2
   101ca:	00000073          	ecall
   101ce:	b751                	c.j	10152 <main+0x152>

00000000000101d0 <usr_build_string_with_int>:
   101d0:	1101                	c.addi	sp,-32
   101d2:	c275                	c.beqz	a2,102b6 <usr_build_string_with_int+0xe6>
   101d4:	4f81                	c.li	t6,0
   101d6:	0c064c63          	blt	a2,zero,102ae <usr_build_string_with_int+0xde>
   101da:	880a                	c.mv	a6,sp
   101dc:	8742                	c.mv	a4,a6
   101de:	8342                	c.mv	t1,a6
   101e0:	4781                	c.li	a5,0
   101e2:	4ea9                	c.li	t4,10
   101e4:	03d668bb          	remw	a7,a2,t4
   101e8:	0305                	c.addi	t1,1
   101ea:	00178f1b          	addiw	t5,a5,1
   101ee:	8e3e                	c.mv	t3,a5
   101f0:	000f079b          	addiw	a5,t5,0
   101f4:	03d6463b          	divw	a2,a2,t4
   101f8:	0308889b          	addiw	a7,a7,48
   101fc:	ff130fa3          	sb	a7,-1(t1)
   10200:	f275                	c.bnez	a2,101e4 <usr_build_string_with_int+0x14>
   10202:	080f8d63          	beq	t6,zero,1029c <usr_build_string_with_int+0xcc>
   10206:	02078793          	addi	a5,a5,32
   1020a:	002e089b          	addiw	a7,t3,2
   1020e:	978a                	c.add	a5,sp
   10210:	02d00313          	addi	t1,zero,45
   10214:	fe678023          	sb	t1,-32(a5)
   10218:	02088793          	addi	a5,a7,32
   1021c:	978a                	c.add	a5,sp
   1021e:	fe078023          	sb	zero,-32(a5)
   10222:	4018d61b          	sraiw	a2,a7,0x1
   10226:	87c6                	c.mv	a5,a7
   10228:	37fd                	c.addiw	a5,-1
   1022a:	97c2                	c.add	a5,a6
   1022c:	9642                	c.add	a2,a6
   1022e:	0007c303          	lbu	t1,0(a5)
   10232:	00074883          	lbu	a7,0(a4)
   10236:	0705                	c.addi	a4,1
   10238:	17fd                	c.addi	a5,-1
   1023a:	fe670fa3          	sb	t1,-1(a4)
   1023e:	011780a3          	sb	a7,1(a5)
   10242:	fee616e3          	bne	a2,a4,1022e <usr_build_string_with_int+0x5e>
   10246:	87aa                	c.mv	a5,a0
   10248:	0005c703          	lbu	a4,0(a1)
   1024c:	0785                	c.addi	a5,1
   1024e:	0585                	c.addi	a1,1
   10250:	fee78fa3          	sb	a4,-1(a5)
   10254:	fb75                	c.bnez	a4,10248 <usr_build_string_with_int+0x78>
   10256:	00054783          	lbu	a5,0(a0)
   1025a:	c7a5                	c.beqz	a5,102c2 <usr_build_string_with_int+0xf2>
   1025c:	00150793          	addi	a5,a0,1
   10260:	863e                	c.mv	a2,a5
   10262:	00064583          	lbu	a1,0(a2)
   10266:	8732                	c.mv	a4,a2
   10268:	0605                	c.addi	a2,1
   1026a:	fde5                	c.bnez	a1,10262 <usr_build_string_with_int+0x92>
   1026c:	8642                	c.mv	a2,a6
   1026e:	00064583          	lbu	a1,0(a2)
   10272:	0705                	c.addi	a4,1
   10274:	0605                	c.addi	a2,1
   10276:	feb70fa3          	sb	a1,-1(a4)
   1027a:	f9f5                	c.bnez	a1,1026e <usr_build_string_with_int+0x9e>
   1027c:	00054703          	lbu	a4,0(a0)
   10280:	c709                	c.beqz	a4,1028a <usr_build_string_with_int+0xba>
   10282:	0007c703          	lbu	a4,0(a5)
   10286:	0785                	c.addi	a5,1
   10288:	ff6d                	c.bnez	a4,10282 <usr_build_string_with_int+0xb2>
   1028a:	0006c703          	lbu	a4,0(a3)
   1028e:	0785                	c.addi	a5,1
   10290:	0685                	c.addi	a3,1
   10292:	fee78f23          	sb	a4,-2(a5)
   10296:	fb75                	c.bnez	a4,1028a <usr_build_string_with_int+0xba>
   10298:	6105                	c.addi16sp	sp,32
   1029a:	8082                	c.jr	ra
   1029c:	02078613          	addi	a2,a5,32
   102a0:	960a                	c.add	a2,sp
   102a2:	fe060023          	sb	zero,-32(a2)
   102a6:	401f561b          	sraiw	a2,t5,0x1
   102aa:	fe3d                	c.bnez	a2,10228 <usr_build_string_with_int+0x58>
   102ac:	bf69                	c.j	10246 <usr_build_string_with_int+0x76>
   102ae:	40c0063b          	subw	a2,zero,a2
   102b2:	4f85                	c.li	t6,1
   102b4:	b71d                	c.j	101da <usr_build_string_with_int+0xa>
   102b6:	03000793          	addi	a5,zero,48
   102ba:	00f11023          	sh	a5,0(sp)
   102be:	880a                	c.mv	a6,sp
   102c0:	b759                	c.j	10246 <usr_build_string_with_int+0x76>
   102c2:	872a                	c.mv	a4,a0
   102c4:	00150793          	addi	a5,a0,1
   102c8:	b755                	c.j	1026c <usr_build_string_with_int+0x9c>

00000000000102ca <_start>:
   102ca:	1141                	c.addi	sp,-16
   102cc:	e406                	c.sdsp	ra,8(sp)
   102ce:	00000097          	auipc	ra,0x0
   102d2:	d32080e7          	jalr	ra,-718(ra) # 10000 <main>
   102d6:	4581                	c.li	a1,0
   102d8:	05d00893          	addi	a7,zero,93
   102dc:	00000073          	ecall
   102e0:	a001                	c.j	102e0 <_start+0x16>
