
build/kill_user_test.elf:     file format elf64-littleriscv


Disassembly of section .text:

0000000000010000 <main>:
   10000:	7169                	c.addi16sp	sp,-304
   10002:	00010537          	lui	a0,0x10
   10006:	f606                	c.sdsp	ra,296(sp)
   10008:	f222                	c.sdsp	s0,288(sp)
   1000a:	31850513          	addi	a0,a0,792 # 10318 <_start+0x36>
   1000e:	4889                	c.li	a7,2
   10010:	00000073          	ecall
   10014:	4501                	c.li	a0,0
   10016:	0dc00893          	addi	a7,zero,220
   1001a:	00000073          	ecall
   1001e:	0005041b          	addiw	s0,a0,0
   10022:	14041263          	bne	s0,zero,10166 <main+0x166>
   10026:	4501                	c.li	a0,0
   10028:	0ac00893          	addi	a7,zero,172
   1002c:	00000073          	ecall
   10030:	000106b7          	lui	a3,0x10
   10034:	000105b7          	lui	a1,0x10
   10038:	0005061b          	addiw	a2,a0,0
   1003c:	34868693          	addi	a3,a3,840 # 10348 <_start+0x66>
   10040:	1008                	c.addi4spn	a0,sp,32
   10042:	37058593          	addi	a1,a1,880 # 10370 <_start+0x8e>
   10046:	00000097          	auipc	ra,0x0
   1004a:	1a2080e7          	jalr	ra,418(ra) # 101e8 <usr_build_string_with_int>
   1004e:	1008                	c.addi4spn	a0,sp,32
   10050:	4889                	c.li	a7,2
   10052:	00000073          	ecall
   10056:	6585                	c.lui	a1,0x1
   10058:	00010eb7          	lui	t4,0x10
   1005c:	00010e37          	lui	t3,0x10
   10060:	38858593          	addi	a1,a1,904 # 1388 <main-0xec78>
   10064:	2f8e8e93          	addi	t4,t4,760 # 102f8 <_start+0x16>
   10068:	310e0e13          	addi	t3,t3,784 # 10310 <_start+0x2e>
   1006c:	06400313          	addi	t1,zero,100
   10070:	4829                	c.li	a6,10
   10072:	03000f13          	addi	t5,zero,48
   10076:	35fd                	c.addiw	a1,-1
   10078:	0265e6bb          	remw	a3,a1,t1
   1007c:	feed                	c.bnez	a3,10076 <main+0x76>
   1007e:	cde9                	c.beqz	a1,10158 <main+0x158>
   10080:	870a                	c.mv	a4,sp
   10082:	8f8a                	c.mv	t6,sp
   10084:	862e                	c.mv	a2,a1
   10086:	0306653b          	remw	a0,a2,a6
   1008a:	0f85                	c.addi	t6,1
   1008c:	0016889b          	addiw	a7,a3,1
   10090:	87b6                	c.mv	a5,a3
   10092:	0008869b          	addiw	a3,a7,0
   10096:	0306463b          	divw	a2,a2,a6
   1009a:	0305051b          	addiw	a0,a0,48
   1009e:	feaf8fa3          	sb	a0,-1(t6)
   100a2:	f275                	c.bnez	a2,10086 <main+0x86>
   100a4:	12068693          	addi	a3,a3,288
   100a8:	968a                	c.add	a3,sp
   100aa:	ee068023          	sb	zero,-288(a3)
   100ae:	4018d89b          	sraiw	a7,a7,0x1
   100b2:	02088063          	beq	a7,zero,100d2 <main+0xd2>
   100b6:	978a                	c.add	a5,sp
   100b8:	988a                	c.add	a7,sp
   100ba:	0007c603          	lbu	a2,0(a5)
   100be:	00074683          	lbu	a3,0(a4)
   100c2:	0705                	c.addi	a4,1
   100c4:	17fd                	c.addi	a5,-1
   100c6:	fec70fa3          	sb	a2,-1(a4)
   100ca:	00d780a3          	sb	a3,1(a5)
   100ce:	ff1716e3          	bne	a4,a7,100ba <main+0xba>
   100d2:	8776                	c.mv	a4,t4
   100d4:	101c                	c.addi4spn	a5,sp,32
   100d6:	00074683          	lbu	a3,0(a4)
   100da:	0785                	c.addi	a5,1
   100dc:	0705                	c.addi	a4,1
   100de:	fed78fa3          	sb	a3,-1(a5)
   100e2:	faf5                	c.bnez	a3,100d6 <main+0xd6>
   100e4:	02014783          	lbu	a5,32(sp)
   100e8:	cfad                	c.beqz	a5,10162 <main+0x162>
   100ea:	02110713          	addi	a4,sp,33
   100ee:	00074683          	lbu	a3,0(a4)
   100f2:	87ba                	c.mv	a5,a4
   100f4:	0705                	c.addi	a4,1
   100f6:	fee5                	c.bnez	a3,100ee <main+0xee>
   100f8:	870a                	c.mv	a4,sp
   100fa:	00074683          	lbu	a3,0(a4)
   100fe:	0785                	c.addi	a5,1
   10100:	0705                	c.addi	a4,1
   10102:	fed78fa3          	sb	a3,-1(a5)
   10106:	faf5                	c.bnez	a3,100fa <main+0xfa>
   10108:	02014783          	lbu	a5,32(sp)
   1010c:	cba9                	c.beqz	a5,1015e <main+0x15e>
   1010e:	02110713          	addi	a4,sp,33
   10112:	00074683          	lbu	a3,0(a4)
   10116:	87ba                	c.mv	a5,a4
   10118:	0705                	c.addi	a4,1
   1011a:	fee5                	c.bnez	a3,10112 <main+0x112>
   1011c:	8772                	c.mv	a4,t3
   1011e:	00074683          	lbu	a3,0(a4)
   10122:	0785                	c.addi	a5,1
   10124:	0705                	c.addi	a4,1
   10126:	fed78fa3          	sb	a3,-1(a5)
   1012a:	faf5                	c.bnez	a3,1011e <main+0x11e>
   1012c:	1008                	c.addi4spn	a0,sp,32
   1012e:	4889                	c.li	a7,2
   10130:	00000073          	ecall
   10134:	4501                	c.li	a0,0
   10136:	0de00893          	addi	a7,zero,222
   1013a:	00000073          	ecall
   1013e:	fd85                	c.bnez	a1,10076 <main+0x76>
   10140:	00010537          	lui	a0,0x10
   10144:	38050513          	addi	a0,a0,896 # 10380 <_start+0x9e>
   10148:	4889                	c.li	a7,2
   1014a:	00000073          	ecall
   1014e:	70b2                	c.ldsp	ra,296(sp)
   10150:	7412                	c.ldsp	s0,288(sp)
   10152:	4501                	c.li	a0,0
   10154:	6155                	c.addi16sp	sp,304
   10156:	8082                	c.jr	ra
   10158:	01e11023          	sh	t5,0(sp)
   1015c:	bf9d                	c.j	100d2 <main+0xd2>
   1015e:	101c                	c.addi4spn	a5,sp,32
   10160:	bf75                	c.j	1011c <main+0x11c>
   10162:	101c                	c.addi4spn	a5,sp,32
   10164:	bf51                	c.j	100f8 <main+0xf8>
   10166:	000106b7          	lui	a3,0x10
   1016a:	000105b7          	lui	a1,0x10
   1016e:	1008                	c.addi4spn	a0,sp,32
   10170:	31068693          	addi	a3,a3,784 # 10310 <_start+0x2e>
   10174:	8622                	c.mv	a2,s0
   10176:	3b858593          	addi	a1,a1,952 # 103b8 <_start+0xd6>
   1017a:	00000097          	auipc	ra,0x0
   1017e:	06e080e7          	jalr	ra,110(ra) # 101e8 <usr_build_string_with_int>
   10182:	1008                	c.addi4spn	a0,sp,32
   10184:	4889                	c.li	a7,2
   10186:	00000073          	ecall
   1018a:	00010537          	lui	a0,0x10
   1018e:	c002                	c.swsp	zero,0(sp)
   10190:	3e050513          	addi	a0,a0,992 # 103e0 <_start+0xfe>
   10194:	00000073          	ecall
   10198:	1f400793          	addi	a5,zero,500
   1019c:	4501                	c.li	a0,0
   1019e:	0de00893          	addi	a7,zero,222
   101a2:	00000073          	ecall
   101a6:	37fd                	c.addiw	a5,-1
   101a8:	fbf5                	c.bnez	a5,1019c <main+0x19c>
   101aa:	8522                	c.mv	a0,s0
   101ac:	08100893          	addi	a7,zero,129
   101b0:	00000073          	ecall
   101b4:	0dd00893          	addi	a7,zero,221
   101b8:	850a                	c.mv	a0,sp
   101ba:	00000073          	ecall
   101be:	4702                	c.lwsp	a4,0(sp)
   101c0:	08100793          	addi	a5,zero,129
   101c4:	00f70a63          	beq	a4,a5,101d8 <main+0x1d8>
   101c8:	00010537          	lui	a0,0x10
   101cc:	43850513          	addi	a0,a0,1080 # 10438 <_start+0x156>
   101d0:	4889                	c.li	a7,2
   101d2:	00000073          	ecall
   101d6:	bfa5                	c.j	1014e <main+0x14e>
   101d8:	00010537          	lui	a0,0x10
   101dc:	41050513          	addi	a0,a0,1040 # 10410 <_start+0x12e>
   101e0:	4889                	c.li	a7,2
   101e2:	00000073          	ecall
   101e6:	b7a5                	c.j	1014e <main+0x14e>

00000000000101e8 <usr_build_string_with_int>:
   101e8:	1101                	c.addi	sp,-32
   101ea:	c275                	c.beqz	a2,102ce <usr_build_string_with_int+0xe6>
   101ec:	4f81                	c.li	t6,0
   101ee:	0c064c63          	blt	a2,zero,102c6 <usr_build_string_with_int+0xde>
   101f2:	880a                	c.mv	a6,sp
   101f4:	8742                	c.mv	a4,a6
   101f6:	8342                	c.mv	t1,a6
   101f8:	4781                	c.li	a5,0
   101fa:	4ea9                	c.li	t4,10
   101fc:	03d668bb          	remw	a7,a2,t4
   10200:	0305                	c.addi	t1,1
   10202:	00178f1b          	addiw	t5,a5,1
   10206:	8e3e                	c.mv	t3,a5
   10208:	000f079b          	addiw	a5,t5,0
   1020c:	03d6463b          	divw	a2,a2,t4
   10210:	0308889b          	addiw	a7,a7,48
   10214:	ff130fa3          	sb	a7,-1(t1)
   10218:	f275                	c.bnez	a2,101fc <usr_build_string_with_int+0x14>
   1021a:	080f8d63          	beq	t6,zero,102b4 <usr_build_string_with_int+0xcc>
   1021e:	02078793          	addi	a5,a5,32
   10222:	002e089b          	addiw	a7,t3,2
   10226:	978a                	c.add	a5,sp
   10228:	02d00313          	addi	t1,zero,45
   1022c:	fe678023          	sb	t1,-32(a5)
   10230:	02088793          	addi	a5,a7,32
   10234:	978a                	c.add	a5,sp
   10236:	fe078023          	sb	zero,-32(a5)
   1023a:	4018d61b          	sraiw	a2,a7,0x1
   1023e:	87c6                	c.mv	a5,a7
   10240:	37fd                	c.addiw	a5,-1
   10242:	97c2                	c.add	a5,a6
   10244:	9642                	c.add	a2,a6
   10246:	0007c303          	lbu	t1,0(a5)
   1024a:	00074883          	lbu	a7,0(a4)
   1024e:	0705                	c.addi	a4,1
   10250:	17fd                	c.addi	a5,-1
   10252:	fe670fa3          	sb	t1,-1(a4)
   10256:	011780a3          	sb	a7,1(a5)
   1025a:	fee616e3          	bne	a2,a4,10246 <usr_build_string_with_int+0x5e>
   1025e:	87aa                	c.mv	a5,a0
   10260:	0005c703          	lbu	a4,0(a1)
   10264:	0785                	c.addi	a5,1
   10266:	0585                	c.addi	a1,1
   10268:	fee78fa3          	sb	a4,-1(a5)
   1026c:	fb75                	c.bnez	a4,10260 <usr_build_string_with_int+0x78>
   1026e:	00054783          	lbu	a5,0(a0)
   10272:	c7a5                	c.beqz	a5,102da <usr_build_string_with_int+0xf2>
   10274:	00150793          	addi	a5,a0,1
   10278:	863e                	c.mv	a2,a5
   1027a:	00064583          	lbu	a1,0(a2)
   1027e:	8732                	c.mv	a4,a2
   10280:	0605                	c.addi	a2,1
   10282:	fde5                	c.bnez	a1,1027a <usr_build_string_with_int+0x92>
   10284:	8642                	c.mv	a2,a6
   10286:	00064583          	lbu	a1,0(a2)
   1028a:	0705                	c.addi	a4,1
   1028c:	0605                	c.addi	a2,1
   1028e:	feb70fa3          	sb	a1,-1(a4)
   10292:	f9f5                	c.bnez	a1,10286 <usr_build_string_with_int+0x9e>
   10294:	00054703          	lbu	a4,0(a0)
   10298:	c709                	c.beqz	a4,102a2 <usr_build_string_with_int+0xba>
   1029a:	0007c703          	lbu	a4,0(a5)
   1029e:	0785                	c.addi	a5,1
   102a0:	ff6d                	c.bnez	a4,1029a <usr_build_string_with_int+0xb2>
   102a2:	0006c703          	lbu	a4,0(a3)
   102a6:	0785                	c.addi	a5,1
   102a8:	0685                	c.addi	a3,1
   102aa:	fee78f23          	sb	a4,-2(a5)
   102ae:	fb75                	c.bnez	a4,102a2 <usr_build_string_with_int+0xba>
   102b0:	6105                	c.addi16sp	sp,32
   102b2:	8082                	c.jr	ra
   102b4:	02078613          	addi	a2,a5,32
   102b8:	960a                	c.add	a2,sp
   102ba:	fe060023          	sb	zero,-32(a2)
   102be:	401f561b          	sraiw	a2,t5,0x1
   102c2:	fe3d                	c.bnez	a2,10240 <usr_build_string_with_int+0x58>
   102c4:	bf69                	c.j	1025e <usr_build_string_with_int+0x76>
   102c6:	40c0063b          	subw	a2,zero,a2
   102ca:	4f85                	c.li	t6,1
   102cc:	b71d                	c.j	101f2 <usr_build_string_with_int+0xa>
   102ce:	03000793          	addi	a5,zero,48
   102d2:	00f11023          	sh	a5,0(sp)
   102d6:	880a                	c.mv	a6,sp
   102d8:	b759                	c.j	1025e <usr_build_string_with_int+0x76>
   102da:	872a                	c.mv	a4,a0
   102dc:	00150793          	addi	a5,a0,1
   102e0:	b755                	c.j	10284 <usr_build_string_with_int+0x9c>

00000000000102e2 <_start>:
   102e2:	1141                	c.addi	sp,-16
   102e4:	e406                	c.sdsp	ra,8(sp)
   102e6:	00000097          	auipc	ra,0x0
   102ea:	d1a080e7          	jalr	ra,-742(ra) # 10000 <main>
   102ee:	05d00893          	addi	a7,zero,93
   102f2:	00000073          	ecall
   102f6:	a001                	c.j	102f6 <_start+0x14>
