
build/kernel:     file format elf64-littleriscv


Disassembly of section .text:

0000000080200000 <_entry>:
.section .text # 设置代码段，基于内存的段式管理
.global _entry # 设置全局入口点，告知连接器入口地址

_entry: # 定义入口点标签
		la sp, stack0
    80200000:	00043117          	auipc	sp,0x43
    80200004:	00010113          	mv	sp,sp
        li a0,4096*4 # 表示4096个字节单位
    80200008:	6511                	lui	a0,0x4
        add sp,sp,a0 # 初始化栈指针
    8020000a:	912a                	add	sp,sp,a0

        la a0,_bss_start
    8020000c:	00044517          	auipc	a0,0x44
    80200010:	0e450513          	addi	a0,a0,228 # 802440f0 <kernel_pagetable>
        la a1,_bss_end
    80200014:	00047597          	auipc	a1,0x47
    80200018:	54c58593          	addi	a1,a1,1356 # 80247560 <bcache>

000000008020001c <clear_bss>:
clear_bss:
        bgeu a0,a1,bss_done
    8020001c:	00b57663          	bgeu	a0,a1,80200028 <bss_done>
        sw zero,0(a0)
    80200020:	00052023          	sw	zero,0(a0)
        addi a0,a0,4
    80200024:	0511                	addi	a0,a0,4
        j clear_bss
    80200026:	bfdd                	j	8020001c <clear_bss>

0000000080200028 <bss_done>:
bss_done:
        call start # 跳转到start函数
    80200028:	00000097          	auipc	ra,0x0
    8020002c:	068080e7          	jalr	104(ra) # 80200090 <start>

0000000080200030 <spin>:
spin:
        j spin # 无限循环，防止程序退出
    80200030:	a001                	j	80200030 <spin>

0000000080200032 <r_sstatus>:
    80200032:	1101                	addi	sp,sp,-32 # 80242fe0 <filename+0xfe0>
    80200034:	ec22                	sd	s0,24(sp)
    80200036:	1000                	addi	s0,sp,32
    80200038:	100027f3          	csrr	a5,sstatus
    8020003c:	fef43423          	sd	a5,-24(s0)
    80200040:	fe843783          	ld	a5,-24(s0)
    80200044:	853e                	mv	a0,a5
    80200046:	6462                	ld	s0,24(sp)
    80200048:	6105                	addi	sp,sp,32
    8020004a:	8082                	ret

000000008020004c <w_sstatus>:
    8020004c:	1101                	addi	sp,sp,-32
    8020004e:	ec22                	sd	s0,24(sp)
    80200050:	1000                	addi	s0,sp,32
    80200052:	fea43423          	sd	a0,-24(s0)
    80200056:	fe843783          	ld	a5,-24(s0)
    8020005a:	10079073          	csrw	sstatus,a5
    8020005e:	0001                	nop
    80200060:	6462                	ld	s0,24(sp)
    80200062:	6105                	addi	sp,sp,32
    80200064:	8082                	ret

0000000080200066 <intr_on>:
    80200066:	1141                	addi	sp,sp,-16
    80200068:	e406                	sd	ra,8(sp)
    8020006a:	e022                	sd	s0,0(sp)
    8020006c:	0800                	addi	s0,sp,16
    8020006e:	00000097          	auipc	ra,0x0
    80200072:	fc4080e7          	jalr	-60(ra) # 80200032 <r_sstatus>
    80200076:	87aa                	mv	a5,a0
    80200078:	0027e793          	ori	a5,a5,2
    8020007c:	853e                	mv	a0,a5
    8020007e:	00000097          	auipc	ra,0x0
    80200082:	fce080e7          	jalr	-50(ra) # 8020004c <w_sstatus>
    80200086:	0001                	nop
    80200088:	60a2                	ld	ra,8(sp)
    8020008a:	6402                	ld	s0,0(sp)
    8020008c:	0141                	addi	sp,sp,16
    8020008e:	8082                	ret

0000000080200090 <start>:
void start(){
    80200090:	1101                	addi	sp,sp,-32
    80200092:	ec06                	sd	ra,24(sp)
    80200094:	e822                	sd	s0,16(sp)
    80200096:	1000                	addi	s0,sp,32
	pmm_init();
    80200098:	00003097          	auipc	ra,0x3
    8020009c:	756080e7          	jalr	1878(ra) # 802037ee <pmm_init>
	kvminit();
    802000a0:	00003097          	auipc	ra,0x3
    802000a4:	828080e7          	jalr	-2008(ra) # 802028c8 <kvminit>
	trap_init();
    802000a8:	00004097          	auipc	ra,0x4
    802000ac:	e08080e7          	jalr	-504(ra) # 80203eb0 <trap_init>
	uart_init();
    802000b0:	00000097          	auipc	ra,0x0
    802000b4:	5b6080e7          	jalr	1462(ra) # 80200666 <uart_init>
	intr_on();
    802000b8:	00000097          	auipc	ra,0x0
    802000bc:	fae080e7          	jalr	-82(ra) # 80200066 <intr_on>
    printf("===============================================\n");
    802000c0:	00012517          	auipc	a0,0x12
    802000c4:	2c050513          	addi	a0,a0,704 # 80212380 <user_test_table+0x198>
    802000c8:	00001097          	auipc	ra,0x1
    802000cc:	1b6080e7          	jalr	438(ra) # 8020127e <printf>
    printf("        RISC-V Operating System v1.0         \n");
    802000d0:	00012517          	auipc	a0,0x12
    802000d4:	2e850513          	addi	a0,a0,744 # 802123b8 <user_test_table+0x1d0>
    802000d8:	00001097          	auipc	ra,0x1
    802000dc:	1a6080e7          	jalr	422(ra) # 8020127e <printf>
    printf("===============================================\n\n");
    802000e0:	00012517          	auipc	a0,0x12
    802000e4:	30850513          	addi	a0,a0,776 # 802123e8 <user_test_table+0x200>
    802000e8:	00001097          	auipc	ra,0x1
    802000ec:	196080e7          	jalr	406(ra) # 8020127e <printf>
	init_proc(); // 初始化进程管理子系统
    802000f0:	00005097          	auipc	ra,0x5
    802000f4:	3cc080e7          	jalr	972(ra) # 802054bc <init_proc>
	int main_pid = create_kernel_proc(kernel_main);
    802000f8:	00000517          	auipc	a0,0x0
    802000fc:	46050513          	addi	a0,a0,1120 # 80200558 <kernel_main>
    80200100:	00005097          	auipc	ra,0x5
    80200104:	7fe080e7          	jalr	2046(ra) # 802058fe <create_kernel_proc>
    80200108:	87aa                	mv	a5,a0
    8020010a:	fef42623          	sw	a5,-20(s0)
	if (main_pid < 0){
    8020010e:	fec42783          	lw	a5,-20(s0)
    80200112:	2781                	sext.w	a5,a5
    80200114:	0007da63          	bgez	a5,80200128 <start+0x98>
		panic("START: create main process failed!\n");
    80200118:	00012517          	auipc	a0,0x12
    8020011c:	30850513          	addi	a0,a0,776 # 80212420 <user_test_table+0x238>
    80200120:	00002097          	auipc	ra,0x2
    80200124:	d80080e7          	jalr	-640(ra) # 80201ea0 <panic>
	schedule();
    80200128:	00006097          	auipc	ra,0x6
    8020012c:	d3a080e7          	jalr	-710(ra) # 80205e62 <schedule>
    panic("START: main() exit unexpectedly!!!\n");
    80200130:	00012517          	auipc	a0,0x12
    80200134:	31850513          	addi	a0,a0,792 # 80212448 <user_test_table+0x260>
    80200138:	00002097          	auipc	ra,0x2
    8020013c:	d68080e7          	jalr	-664(ra) # 80201ea0 <panic>
}
    80200140:	0001                	nop
    80200142:	60e2                	ld	ra,24(sp)
    80200144:	6442                	ld	s0,16(sp)
    80200146:	6105                	addi	sp,sp,32
    80200148:	8082                	ret

000000008020014a <print_menu>:
void print_menu(void) {
    8020014a:	1101                	addi	sp,sp,-32
    8020014c:	ec06                	sd	ra,24(sp)
    8020014e:	e822                	sd	s0,16(sp)
    80200150:	1000                	addi	s0,sp,32
    printf("\n=== 内核测试 ===\n");
    80200152:	00012517          	auipc	a0,0x12
    80200156:	31e50513          	addi	a0,a0,798 # 80212470 <user_test_table+0x288>
    8020015a:	00001097          	auipc	ra,0x1
    8020015e:	124080e7          	jalr	292(ra) # 8020127e <printf>
    for (int i = 0; i < KERNEL_TEST_COUNT; i++) {
    80200162:	fe042623          	sw	zero,-20(s0)
    80200166:	a835                	j	802001a2 <print_menu+0x58>
        printf("  k%d. %s\n", i+1, kernel_test_table[i].name);
    80200168:	fec42783          	lw	a5,-20(s0)
    8020016c:	2785                	addiw	a5,a5,1
    8020016e:	0007869b          	sext.w	a3,a5
    80200172:	00044717          	auipc	a4,0x44
    80200176:	e8e70713          	addi	a4,a4,-370 # 80244000 <kernel_test_table>
    8020017a:	fec42783          	lw	a5,-20(s0)
    8020017e:	0792                	slli	a5,a5,0x4
    80200180:	97ba                	add	a5,a5,a4
    80200182:	639c                	ld	a5,0(a5)
    80200184:	863e                	mv	a2,a5
    80200186:	85b6                	mv	a1,a3
    80200188:	00012517          	auipc	a0,0x12
    8020018c:	30050513          	addi	a0,a0,768 # 80212488 <user_test_table+0x2a0>
    80200190:	00001097          	auipc	ra,0x1
    80200194:	0ee080e7          	jalr	238(ra) # 8020127e <printf>
    for (int i = 0; i < KERNEL_TEST_COUNT; i++) {
    80200198:	fec42783          	lw	a5,-20(s0)
    8020019c:	2785                	addiw	a5,a5,1
    8020019e:	fef42623          	sw	a5,-20(s0)
    802001a2:	fec42783          	lw	a5,-20(s0)
    802001a6:	873e                	mv	a4,a5
    802001a8:	47ad                	li	a5,11
    802001aa:	fae7ffe3          	bgeu	a5,a4,80200168 <print_menu+0x1e>
    printf("\n=== 用户测试 ===\n");
    802001ae:	00012517          	auipc	a0,0x12
    802001b2:	2ea50513          	addi	a0,a0,746 # 80212498 <user_test_table+0x2b0>
    802001b6:	00001097          	auipc	ra,0x1
    802001ba:	0c8080e7          	jalr	200(ra) # 8020127e <printf>
    for (int i = 0; i < USER_TEST_COUNT; i++) {
    802001be:	fe042423          	sw	zero,-24(s0)
    802001c2:	a081                	j	80200202 <print_menu+0xb8>
        printf("  u%d. %s\n", i+1, user_test_table[i].name);
    802001c4:	fe842783          	lw	a5,-24(s0)
    802001c8:	2785                	addiw	a5,a5,1
    802001ca:	0007859b          	sext.w	a1,a5
    802001ce:	00012697          	auipc	a3,0x12
    802001d2:	01a68693          	addi	a3,a3,26 # 802121e8 <user_test_table>
    802001d6:	fe842703          	lw	a4,-24(s0)
    802001da:	87ba                	mv	a5,a4
    802001dc:	0786                	slli	a5,a5,0x1
    802001de:	97ba                	add	a5,a5,a4
    802001e0:	078e                	slli	a5,a5,0x3
    802001e2:	97b6                	add	a5,a5,a3
    802001e4:	639c                	ld	a5,0(a5)
    802001e6:	863e                	mv	a2,a5
    802001e8:	00012517          	auipc	a0,0x12
    802001ec:	2c850513          	addi	a0,a0,712 # 802124b0 <user_test_table+0x2c8>
    802001f0:	00001097          	auipc	ra,0x1
    802001f4:	08e080e7          	jalr	142(ra) # 8020127e <printf>
    for (int i = 0; i < USER_TEST_COUNT; i++) {
    802001f8:	fe842783          	lw	a5,-24(s0)
    802001fc:	2785                	addiw	a5,a5,1
    802001fe:	fef42423          	sw	a5,-24(s0)
    80200202:	fe842783          	lw	a5,-24(s0)
    80200206:	873e                	mv	a4,a5
    80200208:	4791                	li	a5,4
    8020020a:	fae7fde3          	bgeu	a5,a4,802001c4 <print_menu+0x7a>
    printf("\n=== 基础命令 ===\n");
    8020020e:	00012517          	auipc	a0,0x12
    80200212:	2b250513          	addi	a0,a0,690 # 802124c0 <user_test_table+0x2d8>
    80200216:	00001097          	auipc	ra,0x1
    8020021a:	068080e7          	jalr	104(ra) # 8020127e <printf>
    printf("  h. help          - 显示此帮助\n");
    8020021e:	00012517          	auipc	a0,0x12
    80200222:	2ba50513          	addi	a0,a0,698 # 802124d8 <user_test_table+0x2f0>
    80200226:	00001097          	auipc	ra,0x1
    8020022a:	058080e7          	jalr	88(ra) # 8020127e <printf>
    printf("  e. exit          - 退出控制台\n");
    8020022e:	00012517          	auipc	a0,0x12
    80200232:	2d250513          	addi	a0,a0,722 # 80212500 <user_test_table+0x318>
    80200236:	00001097          	auipc	ra,0x1
    8020023a:	048080e7          	jalr	72(ra) # 8020127e <printf>
    printf("  p. ps            - 显示进程状态\n");
    8020023e:	00012517          	auipc	a0,0x12
    80200242:	2ea50513          	addi	a0,a0,746 # 80212528 <user_test_table+0x340>
    80200246:	00001097          	auipc	ra,0x1
    8020024a:	038080e7          	jalr	56(ra) # 8020127e <printf>
}
    8020024e:	0001                	nop
    80200250:	60e2                	ld	ra,24(sp)
    80200252:	6442                	ld	s0,16(sp)
    80200254:	6105                	addi	sp,sp,32
    80200256:	8082                	ret

0000000080200258 <console>:
void console(void) {
    80200258:	7169                	addi	sp,sp,-304
    8020025a:	f606                	sd	ra,296(sp)
    8020025c:	f222                	sd	s0,288(sp)
    8020025e:	1a00                	addi	s0,sp,304
    int exit_requested = 0;
    80200260:	fe042623          	sw	zero,-20(s0)
    print_menu();
    80200264:	00000097          	auipc	ra,0x0
    80200268:	ee6080e7          	jalr	-282(ra) # 8020014a <print_menu>
    while (!exit_requested) {
    8020026c:	a4e1                	j	80200534 <console+0x2dc>
        printf("\nConsole >>> ");
    8020026e:	00012517          	auipc	a0,0x12
    80200272:	2ea50513          	addi	a0,a0,746 # 80212558 <user_test_table+0x370>
    80200276:	00001097          	auipc	ra,0x1
    8020027a:	008080e7          	jalr	8(ra) # 8020127e <printf>
        readline(input_buffer, sizeof(input_buffer));
    8020027e:	ed840793          	addi	a5,s0,-296
    80200282:	10000593          	li	a1,256
    80200286:	853e                	mv	a0,a5
    80200288:	00000097          	auipc	ra,0x0
    8020028c:	7f2080e7          	jalr	2034(ra) # 80200a7a <readline>
        if (input_buffer[0] == '\0') continue;
    80200290:	ed844783          	lbu	a5,-296(s0)
    80200294:	28078f63          	beqz	a5,80200532 <console+0x2da>
        switch(input_buffer[0]) {
    80200298:	ed844783          	lbu	a5,-296(s0)
    8020029c:	2781                	sext.w	a5,a5
    8020029e:	2781                	sext.w	a5,a5
    802002a0:	fbb7879b          	addiw	a5,a5,-69
    802002a4:	0007871b          	sext.w	a4,a5
    802002a8:	86ba                	mv	a3,a4
    802002aa:	02b00793          	li	a5,43
    802002ae:	00d7b7b3          	sltu	a5,a5,a3
    802002b2:	0ff7f793          	zext.b	a5,a5
    802002b6:	e3ad                	bnez	a5,80200318 <console+0xc0>
    802002b8:	4785                	li	a5,1
    802002ba:	00e797b3          	sll	a5,a5,a4
    802002be:	00012717          	auipc	a4,0x12
    802002c2:	51270713          	addi	a4,a4,1298 # 802127d0 <user_test_table+0x5e8>
    802002c6:	6318                	ld	a4,0(a4)
    802002c8:	8f7d                	and	a4,a4,a5
    802002ca:	00e03733          	snez	a4,a4
    802002ce:	0ff77713          	zext.b	a4,a4
    802002d2:	ef15                	bnez	a4,8020030e <console+0xb6>
    802002d4:	46a1                	li	a3,8
    802002d6:	4721                	li	a4,8
    802002d8:	1682                	slli	a3,a3,0x20
    802002da:	9736                	add	a4,a4,a3
    802002dc:	8f7d                	and	a4,a4,a5
    802002de:	00e03733          	snez	a4,a4
    802002e2:	0ff77713          	zext.b	a4,a4
    802002e6:	ef19                	bnez	a4,80200304 <console+0xac>
    802002e8:	4685                	li	a3,1
    802002ea:	4705                	li	a4,1
    802002ec:	1682                	slli	a3,a3,0x20
    802002ee:	9736                	add	a4,a4,a3
    802002f0:	8ff9                	and	a5,a5,a4
    802002f2:	00f037b3          	snez	a5,a5
    802002f6:	0ff7f793          	zext.b	a5,a5
    802002fa:	cf99                	beqz	a5,80200318 <console+0xc0>
                exit_requested = 1;
    802002fc:	4785                	li	a5,1
    802002fe:	fef42623          	sw	a5,-20(s0)
                continue;
    80200302:	ac0d                	j	80200534 <console+0x2dc>
                print_menu();
    80200304:	00000097          	auipc	ra,0x0
    80200308:	e46080e7          	jalr	-442(ra) # 8020014a <print_menu>
                continue;
    8020030c:	a425                	j	80200534 <console+0x2dc>
                print_proc_table();
    8020030e:	00006097          	auipc	ra,0x6
    80200312:	124080e7          	jalr	292(ra) # 80206432 <print_proc_table>
                continue;
    80200316:	ac39                	j	80200534 <console+0x2dc>
        if (input_buffer[0] == 'k' || input_buffer[0] == 'K') {
    80200318:	ed844783          	lbu	a5,-296(s0)
    8020031c:	873e                	mv	a4,a5
    8020031e:	06b00793          	li	a5,107
    80200322:	00f70963          	beq	a4,a5,80200334 <console+0xdc>
    80200326:	ed844783          	lbu	a5,-296(s0)
    8020032a:	873e                	mv	a4,a5
    8020032c:	04b00793          	li	a5,75
    80200330:	0cf71763          	bne	a4,a5,802003fe <console+0x1a6>
            int index = atoi(input_buffer + 1) - 1;
    80200334:	ed840793          	addi	a5,s0,-296
    80200338:	0785                	addi	a5,a5,1
    8020033a:	853e                	mv	a0,a5
    8020033c:	00006097          	auipc	ra,0x6
    80200340:	494080e7          	jalr	1172(ra) # 802067d0 <atoi>
    80200344:	87aa                	mv	a5,a0
    80200346:	37fd                	addiw	a5,a5,-1
    80200348:	fef42023          	sw	a5,-32(s0)
            if (index >= 0 && index < KERNEL_TEST_COUNT) {
    8020034c:	fe042783          	lw	a5,-32(s0)
    80200350:	2781                	sext.w	a5,a5
    80200352:	0807cc63          	bltz	a5,802003ea <console+0x192>
    80200356:	fe042783          	lw	a5,-32(s0)
    8020035a:	873e                	mv	a4,a5
    8020035c:	47ad                	li	a5,11
    8020035e:	08e7e663          	bltu	a5,a4,802003ea <console+0x192>
                printf("\n----- 执行内核测试: %s -----\n", 
    80200362:	00044717          	auipc	a4,0x44
    80200366:	c9e70713          	addi	a4,a4,-866 # 80244000 <kernel_test_table>
    8020036a:	fe042783          	lw	a5,-32(s0)
    8020036e:	0792                	slli	a5,a5,0x4
    80200370:	97ba                	add	a5,a5,a4
    80200372:	639c                	ld	a5,0(a5)
    80200374:	85be                	mv	a1,a5
    80200376:	00012517          	auipc	a0,0x12
    8020037a:	1f250513          	addi	a0,a0,498 # 80212568 <user_test_table+0x380>
    8020037e:	00001097          	auipc	ra,0x1
    80200382:	f00080e7          	jalr	-256(ra) # 8020127e <printf>
                int pid = create_kernel_proc(kernel_test_table[index].func);
    80200386:	00044717          	auipc	a4,0x44
    8020038a:	c7a70713          	addi	a4,a4,-902 # 80244000 <kernel_test_table>
    8020038e:	fe042783          	lw	a5,-32(s0)
    80200392:	0792                	slli	a5,a5,0x4
    80200394:	97ba                	add	a5,a5,a4
    80200396:	679c                	ld	a5,8(a5)
    80200398:	853e                	mv	a0,a5
    8020039a:	00005097          	auipc	ra,0x5
    8020039e:	564080e7          	jalr	1380(ra) # 802058fe <create_kernel_proc>
    802003a2:	87aa                	mv	a5,a0
    802003a4:	fcf42e23          	sw	a5,-36(s0)
                if (pid < 0) {
    802003a8:	fdc42783          	lw	a5,-36(s0)
    802003ac:	2781                	sext.w	a5,a5
    802003ae:	0007db63          	bgez	a5,802003c4 <console+0x16c>
                    printf("创建内核测试进程失败\n");
    802003b2:	00012517          	auipc	a0,0x12
    802003b6:	1de50513          	addi	a0,a0,478 # 80212590 <user_test_table+0x3a8>
    802003ba:	00001097          	auipc	ra,0x1
    802003be:	ec4080e7          	jalr	-316(ra) # 8020127e <printf>
            if (index >= 0 && index < KERNEL_TEST_COUNT) {
    802003c2:	a82d                	j	802003fc <console+0x1a4>
                    printf("创建内核测试进程成功，PID: %d\n", pid);
    802003c4:	fdc42783          	lw	a5,-36(s0)
    802003c8:	85be                	mv	a1,a5
    802003ca:	00012517          	auipc	a0,0x12
    802003ce:	1e650513          	addi	a0,a0,486 # 802125b0 <user_test_table+0x3c8>
    802003d2:	00001097          	auipc	ra,0x1
    802003d6:	eac080e7          	jalr	-340(ra) # 8020127e <printf>
                    wait_proc(&status);
    802003da:	ed440793          	addi	a5,s0,-300
    802003de:	853e                	mv	a0,a5
    802003e0:	00006097          	auipc	ra,0x6
    802003e4:	ec8080e7          	jalr	-312(ra) # 802062a8 <wait_proc>
            if (index >= 0 && index < KERNEL_TEST_COUNT) {
    802003e8:	a811                	j	802003fc <console+0x1a4>
                printf("无效的内核测试序号\n");
    802003ea:	00012517          	auipc	a0,0x12
    802003ee:	1f650513          	addi	a0,a0,502 # 802125e0 <user_test_table+0x3f8>
    802003f2:	00001097          	auipc	ra,0x1
    802003f6:	e8c080e7          	jalr	-372(ra) # 8020127e <printf>
        if (input_buffer[0] == 'k' || input_buffer[0] == 'K') {
    802003fa:	aa2d                	j	80200534 <console+0x2dc>
    802003fc:	aa25                	j	80200534 <console+0x2dc>
        } else if (input_buffer[0] == 'u' || input_buffer[0] == 'U') {
    802003fe:	ed844783          	lbu	a5,-296(s0)
    80200402:	873e                	mv	a4,a5
    80200404:	07500793          	li	a5,117
    80200408:	00f70963          	beq	a4,a5,8020041a <console+0x1c2>
    8020040c:	ed844783          	lbu	a5,-296(s0)
    80200410:	873e                	mv	a4,a5
    80200412:	05500793          	li	a5,85
    80200416:	0ef71a63          	bne	a4,a5,8020050a <console+0x2b2>
            int index = atoi(input_buffer + 1) - 1;
    8020041a:	ed840793          	addi	a5,s0,-296
    8020041e:	0785                	addi	a5,a5,1
    80200420:	853e                	mv	a0,a5
    80200422:	00006097          	auipc	ra,0x6
    80200426:	3ae080e7          	jalr	942(ra) # 802067d0 <atoi>
    8020042a:	87aa                	mv	a5,a0
    8020042c:	37fd                	addiw	a5,a5,-1
    8020042e:	fef42423          	sw	a5,-24(s0)
            if (index >= 0 && index < USER_TEST_COUNT) {
    80200432:	fe842783          	lw	a5,-24(s0)
    80200436:	2781                	sext.w	a5,a5
    80200438:	0a07cf63          	bltz	a5,802004f6 <console+0x29e>
    8020043c:	fe842783          	lw	a5,-24(s0)
    80200440:	873e                	mv	a4,a5
    80200442:	4791                	li	a5,4
    80200444:	0ae7e963          	bltu	a5,a4,802004f6 <console+0x29e>
                       user_test_table[index].name);
    80200448:	00012697          	auipc	a3,0x12
    8020044c:	da068693          	addi	a3,a3,-608 # 802121e8 <user_test_table>
    80200450:	fe842703          	lw	a4,-24(s0)
    80200454:	87ba                	mv	a5,a4
    80200456:	0786                	slli	a5,a5,0x1
    80200458:	97ba                	add	a5,a5,a4
    8020045a:	078e                	slli	a5,a5,0x3
    8020045c:	97b6                	add	a5,a5,a3
    8020045e:	639c                	ld	a5,0(a5)
                printf("\n----- 执行用户测试: %s -----\n", 
    80200460:	85be                	mv	a1,a5
    80200462:	00012517          	auipc	a0,0x12
    80200466:	19e50513          	addi	a0,a0,414 # 80212600 <user_test_table+0x418>
    8020046a:	00001097          	auipc	ra,0x1
    8020046e:	e14080e7          	jalr	-492(ra) # 8020127e <printf>
                int pid = create_user_proc(user_test_table[index].binary,
    80200472:	00012697          	auipc	a3,0x12
    80200476:	d7668693          	addi	a3,a3,-650 # 802121e8 <user_test_table>
    8020047a:	fe842703          	lw	a4,-24(s0)
    8020047e:	87ba                	mv	a5,a4
    80200480:	0786                	slli	a5,a5,0x1
    80200482:	97ba                	add	a5,a5,a4
    80200484:	078e                	slli	a5,a5,0x3
    80200486:	97b6                	add	a5,a5,a3
    80200488:	6790                	ld	a2,8(a5)
                                         user_test_table[index].size);
    8020048a:	00012697          	auipc	a3,0x12
    8020048e:	d5e68693          	addi	a3,a3,-674 # 802121e8 <user_test_table>
    80200492:	fe842703          	lw	a4,-24(s0)
    80200496:	87ba                	mv	a5,a4
    80200498:	0786                	slli	a5,a5,0x1
    8020049a:	97ba                	add	a5,a5,a4
    8020049c:	078e                	slli	a5,a5,0x3
    8020049e:	97b6                	add	a5,a5,a3
    802004a0:	4b9c                	lw	a5,16(a5)
                int pid = create_user_proc(user_test_table[index].binary,
    802004a2:	85be                	mv	a1,a5
    802004a4:	8532                	mv	a0,a2
    802004a6:	00005097          	auipc	ra,0x5
    802004aa:	5ac080e7          	jalr	1452(ra) # 80205a52 <create_user_proc>
    802004ae:	87aa                	mv	a5,a0
    802004b0:	fef42223          	sw	a5,-28(s0)
                if (pid < 0) {
    802004b4:	fe442783          	lw	a5,-28(s0)
    802004b8:	2781                	sext.w	a5,a5
    802004ba:	0007db63          	bgez	a5,802004d0 <console+0x278>
                    printf("创建用户测试进程失败\n");
    802004be:	00012517          	auipc	a0,0x12
    802004c2:	16a50513          	addi	a0,a0,362 # 80212628 <user_test_table+0x440>
    802004c6:	00001097          	auipc	ra,0x1
    802004ca:	db8080e7          	jalr	-584(ra) # 8020127e <printf>
            if (index >= 0 && index < USER_TEST_COUNT) {
    802004ce:	a82d                	j	80200508 <console+0x2b0>
                    printf("创建用户测试进程成功，PID: %d\n", pid);
    802004d0:	fe442783          	lw	a5,-28(s0)
    802004d4:	85be                	mv	a1,a5
    802004d6:	00012517          	auipc	a0,0x12
    802004da:	17250513          	addi	a0,a0,370 # 80212648 <user_test_table+0x460>
    802004de:	00001097          	auipc	ra,0x1
    802004e2:	da0080e7          	jalr	-608(ra) # 8020127e <printf>
                    wait_proc(&status);
    802004e6:	ed040793          	addi	a5,s0,-304
    802004ea:	853e                	mv	a0,a5
    802004ec:	00006097          	auipc	ra,0x6
    802004f0:	dbc080e7          	jalr	-580(ra) # 802062a8 <wait_proc>
            if (index >= 0 && index < USER_TEST_COUNT) {
    802004f4:	a811                	j	80200508 <console+0x2b0>
                printf("无效的用户测试序号\n");
    802004f6:	00012517          	auipc	a0,0x12
    802004fa:	18250513          	addi	a0,a0,386 # 80212678 <user_test_table+0x490>
    802004fe:	00001097          	auipc	ra,0x1
    80200502:	d80080e7          	jalr	-640(ra) # 8020127e <printf>
        } else if (input_buffer[0] == 'u' || input_buffer[0] == 'U') {
    80200506:	a03d                	j	80200534 <console+0x2dc>
    80200508:	a035                	j	80200534 <console+0x2dc>
            printf("无效命令: %s\n", input_buffer);
    8020050a:	ed840793          	addi	a5,s0,-296
    8020050e:	85be                	mv	a1,a5
    80200510:	00012517          	auipc	a0,0x12
    80200514:	18850513          	addi	a0,a0,392 # 80212698 <user_test_table+0x4b0>
    80200518:	00001097          	auipc	ra,0x1
    8020051c:	d66080e7          	jalr	-666(ra) # 8020127e <printf>
            printf("输入 'h' 查看帮助\n");
    80200520:	00012517          	auipc	a0,0x12
    80200524:	19050513          	addi	a0,a0,400 # 802126b0 <user_test_table+0x4c8>
    80200528:	00001097          	auipc	ra,0x1
    8020052c:	d56080e7          	jalr	-682(ra) # 8020127e <printf>
    80200530:	a011                	j	80200534 <console+0x2dc>
        if (input_buffer[0] == '\0') continue;
    80200532:	0001                	nop
    while (!exit_requested) {
    80200534:	fec42783          	lw	a5,-20(s0)
    80200538:	2781                	sext.w	a5,a5
    8020053a:	d2078ae3          	beqz	a5,8020026e <console+0x16>
    printf("控制台进程退出\n");
    8020053e:	00012517          	auipc	a0,0x12
    80200542:	19250513          	addi	a0,a0,402 # 802126d0 <user_test_table+0x4e8>
    80200546:	00001097          	auipc	ra,0x1
    8020054a:	d38080e7          	jalr	-712(ra) # 8020127e <printf>
}
    8020054e:	0001                	nop
    80200550:	70b2                	ld	ra,296(sp)
    80200552:	7412                	ld	s0,288(sp)
    80200554:	6155                	addi	sp,sp,304
    80200556:	8082                	ret

0000000080200558 <kernel_main>:
void kernel_main(void){
    80200558:	7179                	addi	sp,sp,-48
    8020055a:	f406                	sd	ra,40(sp)
    8020055c:	f022                	sd	s0,32(sp)
    8020055e:	1800                	addi	s0,sp,48
	printf("kernel_main entry\n");
    80200560:	00012517          	auipc	a0,0x12
    80200564:	18850513          	addi	a0,a0,392 # 802126e8 <user_test_table+0x500>
    80200568:	00001097          	auipc	ra,0x1
    8020056c:	d16080e7          	jalr	-746(ra) # 8020127e <printf>
	virtio_disk_init();   // 1. 初始化磁盘驱动
    80200570:	0000a097          	auipc	ra,0xa
    80200574:	1a6080e7          	jalr	422(ra) # 8020a716 <virtio_disk_init>
    binit();              // 2. 初始化块缓冲区
    80200578:	0000b097          	auipc	ra,0xb
    8020057c:	cd0080e7          	jalr	-816(ra) # 8020b248 <binit>
    fileinit();           // 3. 初始化文件表
    80200580:	0000c097          	auipc	ra,0xc
    80200584:	d1e080e7          	jalr	-738(ra) # 8020c29e <fileinit>
    iinit();              // 4. 初始化 inode 表
    80200588:	0000d097          	auipc	ra,0xd
    8020058c:	03a080e7          	jalr	58(ra) # 8020d5c2 <iinit>
    fsinit(ROOTDEV);      // 5. 初始化文件系统（会自动调用 initlog）
    80200590:	4505                	li	a0,1
    80200592:	0000d097          	auipc	ra,0xd
    80200596:	b84080e7          	jalr	-1148(ra) # 8020d116 <fsinit>
    struct inode *rootip = iget(ROOTDEV, ROOTINO);
    8020059a:	4585                	li	a1,1
    8020059c:	4505                	li	a0,1
    8020059e:	0000d097          	auipc	ra,0xd
    802005a2:	2c6080e7          	jalr	710(ra) # 8020d864 <iget>
    802005a6:	fea43423          	sd	a0,-24(s0)
    if (rootip == 0) {
    802005aa:	fe843783          	ld	a5,-24(s0)
    802005ae:	eb89                	bnez	a5,802005c0 <kernel_main+0x68>
        panic("KERNEL_MAIN: cannot get root inode!\n");
    802005b0:	00012517          	auipc	a0,0x12
    802005b4:	15050513          	addi	a0,a0,336 # 80212700 <user_test_table+0x518>
    802005b8:	00002097          	auipc	ra,0x2
    802005bc:	8e8080e7          	jalr	-1816(ra) # 80201ea0 <panic>
    myproc()->cwd = rootip;
    802005c0:	00005097          	auipc	ra,0x5
    802005c4:	cbe080e7          	jalr	-834(ra) # 8020527e <myproc>
    802005c8:	872a                	mv	a4,a0
    802005ca:	fe843783          	ld	a5,-24(s0)
    802005ce:	eb7c                	sd	a5,208(a4)
	int console_pid = create_kernel_proc(console);
    802005d0:	00000517          	auipc	a0,0x0
    802005d4:	c8850513          	addi	a0,a0,-888 # 80200258 <console>
    802005d8:	00005097          	auipc	ra,0x5
    802005dc:	326080e7          	jalr	806(ra) # 802058fe <create_kernel_proc>
    802005e0:	87aa                	mv	a5,a0
    802005e2:	fef42223          	sw	a5,-28(s0)
	if (console_pid < 0){
    802005e6:	fe442783          	lw	a5,-28(s0)
    802005ea:	2781                	sext.w	a5,a5
    802005ec:	0007db63          	bgez	a5,80200602 <kernel_main+0xaa>
		panic("KERNEL_MAIN: create console process failed!\n");
    802005f0:	00012517          	auipc	a0,0x12
    802005f4:	13850513          	addi	a0,a0,312 # 80212728 <user_test_table+0x540>
    802005f8:	00002097          	auipc	ra,0x2
    802005fc:	8a8080e7          	jalr	-1880(ra) # 80201ea0 <panic>
    80200600:	a821                	j	80200618 <kernel_main+0xc0>
		debug("KERNEL_MAIN: console process created with PID %d\n", console_pid);
    80200602:	fe442783          	lw	a5,-28(s0)
    80200606:	85be                	mv	a1,a5
    80200608:	00012517          	auipc	a0,0x12
    8020060c:	15050513          	addi	a0,a0,336 # 80212758 <user_test_table+0x570>
    80200610:	00002097          	auipc	ra,0x2
    80200614:	86c080e7          	jalr	-1940(ra) # 80201e7c <debug>
	int pid = wait_proc(&status);
    80200618:	fdc40793          	addi	a5,s0,-36
    8020061c:	853e                	mv	a0,a5
    8020061e:	00006097          	auipc	ra,0x6
    80200622:	c8a080e7          	jalr	-886(ra) # 802062a8 <wait_proc>
    80200626:	87aa                	mv	a5,a0
    80200628:	fef42023          	sw	a5,-32(s0)
	if(pid != console_pid){
    8020062c:	fe042783          	lw	a5,-32(s0)
    80200630:	873e                	mv	a4,a5
    80200632:	fe442783          	lw	a5,-28(s0)
    80200636:	2701                	sext.w	a4,a4
    80200638:	2781                	sext.w	a5,a5
    8020063a:	02f70163          	beq	a4,a5,8020065c <kernel_main+0x104>
		printf("KERNEL_MAIN: unexpected process %d exited with status %d\n", pid, status);
    8020063e:	fdc42703          	lw	a4,-36(s0)
    80200642:	fe042783          	lw	a5,-32(s0)
    80200646:	863a                	mv	a2,a4
    80200648:	85be                	mv	a1,a5
    8020064a:	00012517          	auipc	a0,0x12
    8020064e:	14650513          	addi	a0,a0,326 # 80212790 <user_test_table+0x5a8>
    80200652:	00001097          	auipc	ra,0x1
    80200656:	c2c080e7          	jalr	-980(ra) # 8020127e <printf>
	return;
    8020065a:	0001                	nop
    8020065c:	0001                	nop
    8020065e:	70a2                	ld	ra,40(sp)
    80200660:	7402                	ld	s0,32(sp)
    80200662:	6145                	addi	sp,sp,48
    80200664:	8082                	ret

0000000080200666 <uart_init>:
#define LINE_BUF_SIZE 128
struct uart_input_buf_t uart_input_buf;

static void uart_intr(void);
// UART初始化函数
void uart_init(void) {
    80200666:	1141                	addi	sp,sp,-16
    80200668:	e406                	sd	ra,8(sp)
    8020066a:	e022                	sd	s0,0(sp)
    8020066c:	0800                	addi	s0,sp,16

    WriteReg(IER, 0x00);
    8020066e:	100007b7          	lui	a5,0x10000
    80200672:	0785                	addi	a5,a5,1 # 10000001 <_entry-0x701fffff>
    80200674:	00078023          	sb	zero,0(a5)
    WriteReg(FCR, FCR_FIFO_ENABLE | FCR_FIFO_CLEAR);
    80200678:	100007b7          	lui	a5,0x10000
    8020067c:	0789                	addi	a5,a5,2 # 10000002 <_entry-0x701ffffe>
    8020067e:	471d                	li	a4,7
    80200680:	00e78023          	sb	a4,0(a5)
    WriteReg(IER, IER_RX_ENABLE);
    80200684:	100007b7          	lui	a5,0x10000
    80200688:	0785                	addi	a5,a5,1 # 10000001 <_entry-0x701fffff>
    8020068a:	4705                	li	a4,1
    8020068c:	00e78023          	sb	a4,0(a5)
    register_interrupt(UART0_IRQ, uart_intr);//注册键盘输入的中断处理函数
    80200690:	00000597          	auipc	a1,0x0
    80200694:	0f258593          	addi	a1,a1,242 # 80200782 <uart_intr>
    80200698:	4529                	li	a0,10
    8020069a:	00003097          	auipc	ra,0x3
    8020069e:	692080e7          	jalr	1682(ra) # 80203d2c <register_interrupt>
    enable_interrupts(UART0_IRQ);
    802006a2:	4529                	li	a0,10
    802006a4:	00003097          	auipc	ra,0x3
    802006a8:	712080e7          	jalr	1810(ra) # 80203db6 <enable_interrupts>
    printf("UART initialized with input support\n");
    802006ac:	00014517          	auipc	a0,0x14
    802006b0:	1dc50513          	addi	a0,a0,476 # 80214888 <user_test_table+0x78>
    802006b4:	00001097          	auipc	ra,0x1
    802006b8:	bca080e7          	jalr	-1078(ra) # 8020127e <printf>
}
    802006bc:	0001                	nop
    802006be:	60a2                	ld	ra,8(sp)
    802006c0:	6402                	ld	s0,0(sp)
    802006c2:	0141                	addi	sp,sp,16
    802006c4:	8082                	ret

00000000802006c6 <uart_putc>:

// 发送单个字符
void uart_putc(char c) {
    802006c6:	1101                	addi	sp,sp,-32
    802006c8:	ec22                	sd	s0,24(sp)
    802006ca:	1000                	addi	s0,sp,32
    802006cc:	87aa                	mv	a5,a0
    802006ce:	fef407a3          	sb	a5,-17(s0)
    // 等待发送缓冲区空闲
    while((ReadReg(LSR) & LSR_TX_IDLE) == 0);
    802006d2:	0001                	nop
    802006d4:	100007b7          	lui	a5,0x10000
    802006d8:	0795                	addi	a5,a5,5 # 10000005 <_entry-0x701ffffb>
    802006da:	0007c783          	lbu	a5,0(a5)
    802006de:	0ff7f793          	zext.b	a5,a5
    802006e2:	2781                	sext.w	a5,a5
    802006e4:	0207f793          	andi	a5,a5,32
    802006e8:	2781                	sext.w	a5,a5
    802006ea:	d7ed                	beqz	a5,802006d4 <uart_putc+0xe>
    WriteReg(THR, c);
    802006ec:	100007b7          	lui	a5,0x10000
    802006f0:	fef44703          	lbu	a4,-17(s0)
    802006f4:	00e78023          	sb	a4,0(a5) # 10000000 <_entry-0x70200000>
}
    802006f8:	0001                	nop
    802006fa:	6462                	ld	s0,24(sp)
    802006fc:	6105                	addi	sp,sp,32
    802006fe:	8082                	ret

0000000080200700 <uart_puts>:

void uart_puts(char *s) {
    80200700:	7179                	addi	sp,sp,-48
    80200702:	f422                	sd	s0,40(sp)
    80200704:	1800                	addi	s0,sp,48
    80200706:	fca43c23          	sd	a0,-40(s0)
    if (!s) return;
    8020070a:	fd843783          	ld	a5,-40(s0)
    8020070e:	c7b5                	beqz	a5,8020077a <uart_puts+0x7a>
    
    while (*s) {
    80200710:	a8b9                	j	8020076e <uart_puts+0x6e>
        while ((ReadReg(LSR) & LSR_TX_IDLE) == 0);
    80200712:	0001                	nop
    80200714:	100007b7          	lui	a5,0x10000
    80200718:	0795                	addi	a5,a5,5 # 10000005 <_entry-0x701ffffb>
    8020071a:	0007c783          	lbu	a5,0(a5)
    8020071e:	0ff7f793          	zext.b	a5,a5
    80200722:	2781                	sext.w	a5,a5
    80200724:	0207f793          	andi	a5,a5,32
    80200728:	2781                	sext.w	a5,a5
    8020072a:	d7ed                	beqz	a5,80200714 <uart_puts+0x14>
        int sent_count = 0;
    8020072c:	fe042623          	sw	zero,-20(s0)
        while (*s && sent_count < 4) { 
    80200730:	a01d                	j	80200756 <uart_puts+0x56>
            WriteReg(THR, *s);
    80200732:	100007b7          	lui	a5,0x10000
    80200736:	fd843703          	ld	a4,-40(s0)
    8020073a:	00074703          	lbu	a4,0(a4)
    8020073e:	00e78023          	sb	a4,0(a5) # 10000000 <_entry-0x70200000>
            s++;
    80200742:	fd843783          	ld	a5,-40(s0)
    80200746:	0785                	addi	a5,a5,1
    80200748:	fcf43c23          	sd	a5,-40(s0)
            sent_count++;
    8020074c:	fec42783          	lw	a5,-20(s0)
    80200750:	2785                	addiw	a5,a5,1
    80200752:	fef42623          	sw	a5,-20(s0)
        while (*s && sent_count < 4) { 
    80200756:	fd843783          	ld	a5,-40(s0)
    8020075a:	0007c783          	lbu	a5,0(a5)
    8020075e:	cb81                	beqz	a5,8020076e <uart_puts+0x6e>
    80200760:	fec42783          	lw	a5,-20(s0)
    80200764:	0007871b          	sext.w	a4,a5
    80200768:	478d                	li	a5,3
    8020076a:	fce7d4e3          	bge	a5,a4,80200732 <uart_puts+0x32>
    while (*s) {
    8020076e:	fd843783          	ld	a5,-40(s0)
    80200772:	0007c783          	lbu	a5,0(a5)
    80200776:	ffd1                	bnez	a5,80200712 <uart_puts+0x12>
    80200778:	a011                	j	8020077c <uart_puts+0x7c>
    if (!s) return;
    8020077a:	0001                	nop
        }
    }
}
    8020077c:	7422                	ld	s0,40(sp)
    8020077e:	6145                	addi	sp,sp,48
    80200780:	8082                	ret

0000000080200782 <uart_intr>:

static void uart_intr(void) {
    80200782:	1101                	addi	sp,sp,-32
    80200784:	ec06                	sd	ra,24(sp)
    80200786:	e822                	sd	s0,16(sp)
    80200788:	1000                	addi	s0,sp,32
    static char linebuf[LINE_BUF_SIZE];
    static int line_len = 0;

    while (ReadReg(LSR) & LSR_RX_READY) {
    8020078a:	ac91                	j	802009de <uart_intr+0x25c>
        char c = ReadReg(RHR);
    8020078c:	100007b7          	lui	a5,0x10000
    80200790:	0007c783          	lbu	a5,0(a5) # 10000000 <_entry-0x70200000>
    80200794:	fef405a3          	sb	a5,-21(s0)
		if (c == 0x0c) { // 是'L'与 0x1f按位与的结果
    80200798:	feb44783          	lbu	a5,-21(s0)
    8020079c:	0ff7f713          	zext.b	a4,a5
    802007a0:	47b1                	li	a5,12
    802007a2:	02f71963          	bne	a4,a5,802007d4 <uart_intr+0x52>
            clear_screen();
    802007a6:	00001097          	auipc	ra,0x1
    802007aa:	2f6080e7          	jalr	758(ra) # 80201a9c <clear_screen>
			if (myproc()->pid == 1){ // 检查当前进程是否为控制台进程
    802007ae:	00005097          	auipc	ra,0x5
    802007b2:	ad0080e7          	jalr	-1328(ra) # 8020527e <myproc>
    802007b6:	87aa                	mv	a5,a0
    802007b8:	43dc                	lw	a5,4(a5)
    802007ba:	873e                	mv	a4,a5
    802007bc:	4785                	li	a5,1
    802007be:	20f71f63          	bne	a4,a5,802009dc <uart_intr+0x25a>
				printf("Console >>> ");
    802007c2:	00014517          	auipc	a0,0x14
    802007c6:	0ee50513          	addi	a0,a0,238 # 802148b0 <user_test_table+0xa0>
    802007ca:	00001097          	auipc	ra,0x1
    802007ce:	ab4080e7          	jalr	-1356(ra) # 8020127e <printf>
			}
            continue;
    802007d2:	a429                	j	802009dc <uart_intr+0x25a>
        }
		if(c == 0x03){
    802007d4:	feb44783          	lbu	a5,-21(s0)
    802007d8:	0ff7f713          	zext.b	a4,a5
    802007dc:	478d                	li	a5,3
    802007de:	00f71f63          	bne	a4,a5,802007fc <uart_intr+0x7a>
			warning("Ctrl+C to Crash\n");
    802007e2:	00014517          	auipc	a0,0x14
    802007e6:	0de50513          	addi	a0,a0,222 # 802148c0 <user_test_table+0xb0>
    802007ea:	00001097          	auipc	ra,0x1
    802007ee:	720080e7          	jalr	1824(ra) # 80201f0a <warning>
			asm volatile (
    802007f2:	48a1                	li	a7,8
    802007f4:	00000073          	ecall
				"li a7, 8\n"
				"ecall\n"
			);
			while(1);
    802007f8:	0001                	nop
    802007fa:	bffd                	j	802007f8 <uart_intr+0x76>
		}
        if (c == '\r' || c == '\n') {
    802007fc:	feb44783          	lbu	a5,-21(s0)
    80200800:	0ff7f713          	zext.b	a4,a5
    80200804:	47b5                	li	a5,13
    80200806:	00f70963          	beq	a4,a5,80200818 <uart_intr+0x96>
    8020080a:	feb44783          	lbu	a5,-21(s0)
    8020080e:	0ff7f713          	zext.b	a4,a5
    80200812:	47a9                	li	a5,10
    80200814:	10f71763          	bne	a4,a5,80200922 <uart_intr+0x1a0>
            uart_putc('\n');
    80200818:	4529                	li	a0,10
    8020081a:	00000097          	auipc	ra,0x0
    8020081e:	eac080e7          	jalr	-340(ra) # 802006c6 <uart_putc>
            // 将编辑好的整行写入全局缓冲区
            for (int i = 0; i < line_len; i++) {
    80200822:	fe042623          	sw	zero,-20(s0)
    80200826:	a8b5                	j	802008a2 <uart_intr+0x120>
                int next = (uart_input_buf.w + 1) % INPUT_BUF_SIZE;
    80200828:	00044797          	auipc	a5,0x44
    8020082c:	8f878793          	addi	a5,a5,-1800 # 80244120 <uart_input_buf>
    80200830:	0847a783          	lw	a5,132(a5)
    80200834:	2785                	addiw	a5,a5,1
    80200836:	2781                	sext.w	a5,a5
    80200838:	2781                	sext.w	a5,a5
    8020083a:	07f7f793          	andi	a5,a5,127
    8020083e:	fef42023          	sw	a5,-32(s0)
                if (next != uart_input_buf.r) {
    80200842:	00044797          	auipc	a5,0x44
    80200846:	8de78793          	addi	a5,a5,-1826 # 80244120 <uart_input_buf>
    8020084a:	0807a703          	lw	a4,128(a5)
    8020084e:	fe042783          	lw	a5,-32(s0)
    80200852:	04f70363          	beq	a4,a5,80200898 <uart_intr+0x116>
                    uart_input_buf.buf[uart_input_buf.w] = linebuf[i];
    80200856:	00044797          	auipc	a5,0x44
    8020085a:	8ca78793          	addi	a5,a5,-1846 # 80244120 <uart_input_buf>
    8020085e:	0847a603          	lw	a2,132(a5)
    80200862:	00044717          	auipc	a4,0x44
    80200866:	94e70713          	addi	a4,a4,-1714 # 802441b0 <linebuf.1>
    8020086a:	fec42783          	lw	a5,-20(s0)
    8020086e:	97ba                	add	a5,a5,a4
    80200870:	0007c703          	lbu	a4,0(a5)
    80200874:	00044697          	auipc	a3,0x44
    80200878:	8ac68693          	addi	a3,a3,-1876 # 80244120 <uart_input_buf>
    8020087c:	02061793          	slli	a5,a2,0x20
    80200880:	9381                	srli	a5,a5,0x20
    80200882:	97b6                	add	a5,a5,a3
    80200884:	00e78023          	sb	a4,0(a5)
                    uart_input_buf.w = next;
    80200888:	fe042703          	lw	a4,-32(s0)
    8020088c:	00044797          	auipc	a5,0x44
    80200890:	89478793          	addi	a5,a5,-1900 # 80244120 <uart_input_buf>
    80200894:	08e7a223          	sw	a4,132(a5)
            for (int i = 0; i < line_len; i++) {
    80200898:	fec42783          	lw	a5,-20(s0)
    8020089c:	2785                	addiw	a5,a5,1
    8020089e:	fef42623          	sw	a5,-20(s0)
    802008a2:	00044797          	auipc	a5,0x44
    802008a6:	98e78793          	addi	a5,a5,-1650 # 80244230 <line_len.0>
    802008aa:	4398                	lw	a4,0(a5)
    802008ac:	fec42783          	lw	a5,-20(s0)
    802008b0:	2781                	sext.w	a5,a5
    802008b2:	f6e7cbe3          	blt	a5,a4,80200828 <uart_intr+0xa6>
                }
            }
            // 写入换行符
            int next = (uart_input_buf.w + 1) % INPUT_BUF_SIZE;
    802008b6:	00044797          	auipc	a5,0x44
    802008ba:	86a78793          	addi	a5,a5,-1942 # 80244120 <uart_input_buf>
    802008be:	0847a783          	lw	a5,132(a5)
    802008c2:	2785                	addiw	a5,a5,1
    802008c4:	2781                	sext.w	a5,a5
    802008c6:	2781                	sext.w	a5,a5
    802008c8:	07f7f793          	andi	a5,a5,127
    802008cc:	fef42223          	sw	a5,-28(s0)
            if (next != uart_input_buf.r) {
    802008d0:	00044797          	auipc	a5,0x44
    802008d4:	85078793          	addi	a5,a5,-1968 # 80244120 <uart_input_buf>
    802008d8:	0807a703          	lw	a4,128(a5)
    802008dc:	fe442783          	lw	a5,-28(s0)
    802008e0:	02f70a63          	beq	a4,a5,80200914 <uart_intr+0x192>
                uart_input_buf.buf[uart_input_buf.w] = '\n';
    802008e4:	00044797          	auipc	a5,0x44
    802008e8:	83c78793          	addi	a5,a5,-1988 # 80244120 <uart_input_buf>
    802008ec:	0847a783          	lw	a5,132(a5)
    802008f0:	00044717          	auipc	a4,0x44
    802008f4:	83070713          	addi	a4,a4,-2000 # 80244120 <uart_input_buf>
    802008f8:	1782                	slli	a5,a5,0x20
    802008fa:	9381                	srli	a5,a5,0x20
    802008fc:	97ba                	add	a5,a5,a4
    802008fe:	4729                	li	a4,10
    80200900:	00e78023          	sb	a4,0(a5)
                uart_input_buf.w = next;
    80200904:	fe442703          	lw	a4,-28(s0)
    80200908:	00044797          	auipc	a5,0x44
    8020090c:	81878793          	addi	a5,a5,-2024 # 80244120 <uart_input_buf>
    80200910:	08e7a223          	sw	a4,132(a5)
            }
            line_len = 0;
    80200914:	00044797          	auipc	a5,0x44
    80200918:	91c78793          	addi	a5,a5,-1764 # 80244230 <line_len.0>
    8020091c:	0007a023          	sw	zero,0(a5)
        if (c == '\r' || c == '\n') {
    80200920:	a87d                	j	802009de <uart_intr+0x25c>
        } else if (c == 0x7f || c == 0x08) { // 退格
    80200922:	feb44783          	lbu	a5,-21(s0)
    80200926:	0ff7f713          	zext.b	a4,a5
    8020092a:	07f00793          	li	a5,127
    8020092e:	00f70963          	beq	a4,a5,80200940 <uart_intr+0x1be>
    80200932:	feb44783          	lbu	a5,-21(s0)
    80200936:	0ff7f713          	zext.b	a4,a5
    8020093a:	47a1                	li	a5,8
    8020093c:	04f71763          	bne	a4,a5,8020098a <uart_intr+0x208>
            if (line_len > 0) {
    80200940:	00044797          	auipc	a5,0x44
    80200944:	8f078793          	addi	a5,a5,-1808 # 80244230 <line_len.0>
    80200948:	439c                	lw	a5,0(a5)
    8020094a:	08f05a63          	blez	a5,802009de <uart_intr+0x25c>
                uart_putc('\b');
    8020094e:	4521                	li	a0,8
    80200950:	00000097          	auipc	ra,0x0
    80200954:	d76080e7          	jalr	-650(ra) # 802006c6 <uart_putc>
                uart_putc(' ');
    80200958:	02000513          	li	a0,32
    8020095c:	00000097          	auipc	ra,0x0
    80200960:	d6a080e7          	jalr	-662(ra) # 802006c6 <uart_putc>
                uart_putc('\b');
    80200964:	4521                	li	a0,8
    80200966:	00000097          	auipc	ra,0x0
    8020096a:	d60080e7          	jalr	-672(ra) # 802006c6 <uart_putc>
                line_len--;
    8020096e:	00044797          	auipc	a5,0x44
    80200972:	8c278793          	addi	a5,a5,-1854 # 80244230 <line_len.0>
    80200976:	439c                	lw	a5,0(a5)
    80200978:	37fd                	addiw	a5,a5,-1
    8020097a:	0007871b          	sext.w	a4,a5
    8020097e:	00044797          	auipc	a5,0x44
    80200982:	8b278793          	addi	a5,a5,-1870 # 80244230 <line_len.0>
    80200986:	c398                	sw	a4,0(a5)
            if (line_len > 0) {
    80200988:	a899                	j	802009de <uart_intr+0x25c>
            }
        } else if (line_len < LINE_BUF_SIZE - 1) {
    8020098a:	00044797          	auipc	a5,0x44
    8020098e:	8a678793          	addi	a5,a5,-1882 # 80244230 <line_len.0>
    80200992:	439c                	lw	a5,0(a5)
    80200994:	873e                	mv	a4,a5
    80200996:	07e00793          	li	a5,126
    8020099a:	04e7c263          	blt	a5,a4,802009de <uart_intr+0x25c>
            uart_putc(c);
    8020099e:	feb44783          	lbu	a5,-21(s0)
    802009a2:	853e                	mv	a0,a5
    802009a4:	00000097          	auipc	ra,0x0
    802009a8:	d22080e7          	jalr	-734(ra) # 802006c6 <uart_putc>
            linebuf[line_len++] = c;
    802009ac:	00044797          	auipc	a5,0x44
    802009b0:	88478793          	addi	a5,a5,-1916 # 80244230 <line_len.0>
    802009b4:	439c                	lw	a5,0(a5)
    802009b6:	0017871b          	addiw	a4,a5,1
    802009ba:	0007069b          	sext.w	a3,a4
    802009be:	00044717          	auipc	a4,0x44
    802009c2:	87270713          	addi	a4,a4,-1934 # 80244230 <line_len.0>
    802009c6:	c314                	sw	a3,0(a4)
    802009c8:	00043717          	auipc	a4,0x43
    802009cc:	7e870713          	addi	a4,a4,2024 # 802441b0 <linebuf.1>
    802009d0:	97ba                	add	a5,a5,a4
    802009d2:	feb44703          	lbu	a4,-21(s0)
    802009d6:	00e78023          	sb	a4,0(a5)
    802009da:	a011                	j	802009de <uart_intr+0x25c>
            continue;
    802009dc:	0001                	nop
    while (ReadReg(LSR) & LSR_RX_READY) {
    802009de:	100007b7          	lui	a5,0x10000
    802009e2:	0795                	addi	a5,a5,5 # 10000005 <_entry-0x701ffffb>
    802009e4:	0007c783          	lbu	a5,0(a5)
    802009e8:	0ff7f793          	zext.b	a5,a5
    802009ec:	2781                	sext.w	a5,a5
    802009ee:	8b85                	andi	a5,a5,1
    802009f0:	2781                	sext.w	a5,a5
    802009f2:	d8079de3          	bnez	a5,8020078c <uart_intr+0xa>
        }
    }
}
    802009f6:	0001                	nop
    802009f8:	0001                	nop
    802009fa:	60e2                	ld	ra,24(sp)
    802009fc:	6442                	ld	s0,16(sp)
    802009fe:	6105                	addi	sp,sp,32
    80200a00:	8082                	ret

0000000080200a02 <uart_getc_blocking>:
// 阻塞式读取一个字符
char uart_getc_blocking(void) {
    80200a02:	1101                	addi	sp,sp,-32
    80200a04:	ec22                	sd	s0,24(sp)
    80200a06:	1000                	addi	s0,sp,32
    // 等待直到有字符可读
    while (uart_input_buf.r == uart_input_buf.w) {
    80200a08:	a011                	j	80200a0c <uart_getc_blocking+0xa>
        // 在实际系统中，这里可能需要让进程睡眠
        // 但目前我们使用简单的轮询
        asm volatile("nop");
    80200a0a:	0001                	nop
    while (uart_input_buf.r == uart_input_buf.w) {
    80200a0c:	00043797          	auipc	a5,0x43
    80200a10:	71478793          	addi	a5,a5,1812 # 80244120 <uart_input_buf>
    80200a14:	0807a703          	lw	a4,128(a5)
    80200a18:	00043797          	auipc	a5,0x43
    80200a1c:	70878793          	addi	a5,a5,1800 # 80244120 <uart_input_buf>
    80200a20:	0847a783          	lw	a5,132(a5)
    80200a24:	fef703e3          	beq	a4,a5,80200a0a <uart_getc_blocking+0x8>
    }
    
    // 读取字符
    char c = uart_input_buf.buf[uart_input_buf.r];
    80200a28:	00043797          	auipc	a5,0x43
    80200a2c:	6f878793          	addi	a5,a5,1784 # 80244120 <uart_input_buf>
    80200a30:	0807a783          	lw	a5,128(a5)
    80200a34:	00043717          	auipc	a4,0x43
    80200a38:	6ec70713          	addi	a4,a4,1772 # 80244120 <uart_input_buf>
    80200a3c:	1782                	slli	a5,a5,0x20
    80200a3e:	9381                	srli	a5,a5,0x20
    80200a40:	97ba                	add	a5,a5,a4
    80200a42:	0007c783          	lbu	a5,0(a5)
    80200a46:	fef407a3          	sb	a5,-17(s0)
    uart_input_buf.r = (uart_input_buf.r + 1) % INPUT_BUF_SIZE;
    80200a4a:	00043797          	auipc	a5,0x43
    80200a4e:	6d678793          	addi	a5,a5,1750 # 80244120 <uart_input_buf>
    80200a52:	0807a783          	lw	a5,128(a5)
    80200a56:	2785                	addiw	a5,a5,1
    80200a58:	2781                	sext.w	a5,a5
    80200a5a:	07f7f793          	andi	a5,a5,127
    80200a5e:	0007871b          	sext.w	a4,a5
    80200a62:	00043797          	auipc	a5,0x43
    80200a66:	6be78793          	addi	a5,a5,1726 # 80244120 <uart_input_buf>
    80200a6a:	08e7a023          	sw	a4,128(a5)
    return c;
    80200a6e:	fef44783          	lbu	a5,-17(s0)
}
    80200a72:	853e                	mv	a0,a5
    80200a74:	6462                	ld	s0,24(sp)
    80200a76:	6105                	addi	sp,sp,32
    80200a78:	8082                	ret

0000000080200a7a <readline>:
// 读取一行输入，最多读取max-1个字符，并在末尾添加\0
int readline(char *buf, int max) {
    80200a7a:	7179                	addi	sp,sp,-48
    80200a7c:	f406                	sd	ra,40(sp)
    80200a7e:	f022                	sd	s0,32(sp)
    80200a80:	1800                	addi	s0,sp,48
    80200a82:	fca43c23          	sd	a0,-40(s0)
    80200a86:	87ae                	mv	a5,a1
    80200a88:	fcf42a23          	sw	a5,-44(s0)
    int i = 0;
    80200a8c:	fe042623          	sw	zero,-20(s0)
    char c;
    
    while (i < max - 1) {
    80200a90:	a0b9                	j	80200ade <readline+0x64>
        c = uart_getc_blocking();
    80200a92:	00000097          	auipc	ra,0x0
    80200a96:	f70080e7          	jalr	-144(ra) # 80200a02 <uart_getc_blocking>
    80200a9a:	87aa                	mv	a5,a0
    80200a9c:	fef405a3          	sb	a5,-21(s0)
        
        if (c == '\n') {
    80200aa0:	feb44783          	lbu	a5,-21(s0)
    80200aa4:	0ff7f713          	zext.b	a4,a5
    80200aa8:	47a9                	li	a5,10
    80200aaa:	00f71c63          	bne	a4,a5,80200ac2 <readline+0x48>
            buf[i] = '\0';
    80200aae:	fec42783          	lw	a5,-20(s0)
    80200ab2:	fd843703          	ld	a4,-40(s0)
    80200ab6:	97ba                	add	a5,a5,a4
    80200ab8:	00078023          	sb	zero,0(a5)
            return i;
    80200abc:	fec42783          	lw	a5,-20(s0)
    80200ac0:	a0a9                	j	80200b0a <readline+0x90>
        } else {
            buf[i++] = c;
    80200ac2:	fec42783          	lw	a5,-20(s0)
    80200ac6:	0017871b          	addiw	a4,a5,1
    80200aca:	fee42623          	sw	a4,-20(s0)
    80200ace:	873e                	mv	a4,a5
    80200ad0:	fd843783          	ld	a5,-40(s0)
    80200ad4:	97ba                	add	a5,a5,a4
    80200ad6:	feb44703          	lbu	a4,-21(s0)
    80200ada:	00e78023          	sb	a4,0(a5)
    while (i < max - 1) {
    80200ade:	fd442783          	lw	a5,-44(s0)
    80200ae2:	37fd                	addiw	a5,a5,-1
    80200ae4:	0007871b          	sext.w	a4,a5
    80200ae8:	fec42783          	lw	a5,-20(s0)
    80200aec:	2781                	sext.w	a5,a5
    80200aee:	fae7c2e3          	blt	a5,a4,80200a92 <readline+0x18>
        }
    }
    
    // 缓冲区满，添加\0并返回
    buf[max-1] = '\0';
    80200af2:	fd442783          	lw	a5,-44(s0)
    80200af6:	17fd                	addi	a5,a5,-1
    80200af8:	fd843703          	ld	a4,-40(s0)
    80200afc:	97ba                	add	a5,a5,a4
    80200afe:	00078023          	sb	zero,0(a5)
    return max-1;
    80200b02:	fd442783          	lw	a5,-44(s0)
    80200b06:	37fd                	addiw	a5,a5,-1
    80200b08:	2781                	sext.w	a5,a5
    80200b0a:	853e                	mv	a0,a5
    80200b0c:	70a2                	ld	ra,40(sp)
    80200b0e:	7402                	ld	s0,32(sp)
    80200b10:	6145                	addi	sp,sp,48
    80200b12:	8082                	ret

0000000080200b14 <flush_printf_buffer>:
extern void uart_putc(char c);

static char printf_buffer[PRINTF_BUFFER_SIZE];
static int printf_buf_pos = 0;\

static void flush_printf_buffer(void) {
    80200b14:	1141                	addi	sp,sp,-16
    80200b16:	e406                	sd	ra,8(sp)
    80200b18:	e022                	sd	s0,0(sp)
    80200b1a:	0800                	addi	s0,sp,16
	if (printf_buf_pos > 0) {
    80200b1c:	00043797          	auipc	a5,0x43
    80200b20:	79c78793          	addi	a5,a5,1948 # 802442b8 <printf_buf_pos>
    80200b24:	439c                	lw	a5,0(a5)
    80200b26:	02f05c63          	blez	a5,80200b5e <flush_printf_buffer+0x4a>
		printf_buffer[printf_buf_pos] = '\0'; // Null-terminate the string
    80200b2a:	00043797          	auipc	a5,0x43
    80200b2e:	78e78793          	addi	a5,a5,1934 # 802442b8 <printf_buf_pos>
    80200b32:	439c                	lw	a5,0(a5)
    80200b34:	00043717          	auipc	a4,0x43
    80200b38:	70470713          	addi	a4,a4,1796 # 80244238 <printf_buffer>
    80200b3c:	97ba                	add	a5,a5,a4
    80200b3e:	00078023          	sb	zero,0(a5)
		uart_puts(printf_buffer); // Send the buffer to UART
    80200b42:	00043517          	auipc	a0,0x43
    80200b46:	6f650513          	addi	a0,a0,1782 # 80244238 <printf_buffer>
    80200b4a:	00000097          	auipc	ra,0x0
    80200b4e:	bb6080e7          	jalr	-1098(ra) # 80200700 <uart_puts>
		printf_buf_pos = 0; // Reset buffer position
    80200b52:	00043797          	auipc	a5,0x43
    80200b56:	76678793          	addi	a5,a5,1894 # 802442b8 <printf_buf_pos>
    80200b5a:	0007a023          	sw	zero,0(a5)
	}
}
    80200b5e:	0001                	nop
    80200b60:	60a2                	ld	ra,8(sp)
    80200b62:	6402                	ld	s0,0(sp)
    80200b64:	0141                	addi	sp,sp,16
    80200b66:	8082                	ret

0000000080200b68 <buffer_char>:
static void buffer_char(char c) {
    80200b68:	1101                	addi	sp,sp,-32
    80200b6a:	ec06                	sd	ra,24(sp)
    80200b6c:	e822                	sd	s0,16(sp)
    80200b6e:	1000                	addi	s0,sp,32
    80200b70:	87aa                	mv	a5,a0
    80200b72:	fef407a3          	sb	a5,-17(s0)
	if (printf_buf_pos < PRINTF_BUFFER_SIZE - 1) { // Leave space for null terminator
    80200b76:	00043797          	auipc	a5,0x43
    80200b7a:	74278793          	addi	a5,a5,1858 # 802442b8 <printf_buf_pos>
    80200b7e:	439c                	lw	a5,0(a5)
    80200b80:	873e                	mv	a4,a5
    80200b82:	07e00793          	li	a5,126
    80200b86:	02e7ca63          	blt	a5,a4,80200bba <buffer_char+0x52>
		printf_buffer[printf_buf_pos++] = c;
    80200b8a:	00043797          	auipc	a5,0x43
    80200b8e:	72e78793          	addi	a5,a5,1838 # 802442b8 <printf_buf_pos>
    80200b92:	439c                	lw	a5,0(a5)
    80200b94:	0017871b          	addiw	a4,a5,1
    80200b98:	0007069b          	sext.w	a3,a4
    80200b9c:	00043717          	auipc	a4,0x43
    80200ba0:	71c70713          	addi	a4,a4,1820 # 802442b8 <printf_buf_pos>
    80200ba4:	c314                	sw	a3,0(a4)
    80200ba6:	00043717          	auipc	a4,0x43
    80200baa:	69270713          	addi	a4,a4,1682 # 80244238 <printf_buffer>
    80200bae:	97ba                	add	a5,a5,a4
    80200bb0:	fef44703          	lbu	a4,-17(s0)
    80200bb4:	00e78023          	sb	a4,0(a5)
	} else {
		flush_printf_buffer(); // Buffer full, flush it
		printf_buffer[printf_buf_pos++] = c; // Add the character after flushing
	}
}
    80200bb8:	a825                	j	80200bf0 <buffer_char+0x88>
		flush_printf_buffer(); // Buffer full, flush it
    80200bba:	00000097          	auipc	ra,0x0
    80200bbe:	f5a080e7          	jalr	-166(ra) # 80200b14 <flush_printf_buffer>
		printf_buffer[printf_buf_pos++] = c; // Add the character after flushing
    80200bc2:	00043797          	auipc	a5,0x43
    80200bc6:	6f678793          	addi	a5,a5,1782 # 802442b8 <printf_buf_pos>
    80200bca:	439c                	lw	a5,0(a5)
    80200bcc:	0017871b          	addiw	a4,a5,1
    80200bd0:	0007069b          	sext.w	a3,a4
    80200bd4:	00043717          	auipc	a4,0x43
    80200bd8:	6e470713          	addi	a4,a4,1764 # 802442b8 <printf_buf_pos>
    80200bdc:	c314                	sw	a3,0(a4)
    80200bde:	00043717          	auipc	a4,0x43
    80200be2:	65a70713          	addi	a4,a4,1626 # 80244238 <printf_buffer>
    80200be6:	97ba                	add	a5,a5,a4
    80200be8:	fef44703          	lbu	a4,-17(s0)
    80200bec:	00e78023          	sb	a4,0(a5)
}
    80200bf0:	0001                	nop
    80200bf2:	60e2                	ld	ra,24(sp)
    80200bf4:	6442                	ld	s0,16(sp)
    80200bf6:	6105                	addi	sp,sp,32
    80200bf8:	8082                	ret

0000000080200bfa <consputc>:

static void consputc(int c){
    80200bfa:	1101                	addi	sp,sp,-32
    80200bfc:	ec06                	sd	ra,24(sp)
    80200bfe:	e822                	sd	s0,16(sp)
    80200c00:	1000                	addi	s0,sp,32
    80200c02:	87aa                	mv	a5,a0
    80200c04:	fef42623          	sw	a5,-20(s0)
	// 实现到多个输出的处理，目前只有串口输出
	uart_putc(c);
    80200c08:	fec42783          	lw	a5,-20(s0)
    80200c0c:	0ff7f793          	zext.b	a5,a5
    80200c10:	853e                	mv	a0,a5
    80200c12:	00000097          	auipc	ra,0x0
    80200c16:	ab4080e7          	jalr	-1356(ra) # 802006c6 <uart_putc>
}
    80200c1a:	0001                	nop
    80200c1c:	60e2                	ld	ra,24(sp)
    80200c1e:	6442                	ld	s0,16(sp)
    80200c20:	6105                	addi	sp,sp,32
    80200c22:	8082                	ret

0000000080200c24 <consputs>:
static void consputs(const char *s){
    80200c24:	7179                	addi	sp,sp,-48
    80200c26:	f406                	sd	ra,40(sp)
    80200c28:	f022                	sd	s0,32(sp)
    80200c2a:	1800                	addi	s0,sp,48
    80200c2c:	fca43c23          	sd	a0,-40(s0)
	char *str = (char *)s;
    80200c30:	fd843783          	ld	a5,-40(s0)
    80200c34:	fef43423          	sd	a5,-24(s0)
	// 直接调用uart_puts输出字符串
	uart_puts(str);
    80200c38:	fe843503          	ld	a0,-24(s0)
    80200c3c:	00000097          	auipc	ra,0x0
    80200c40:	ac4080e7          	jalr	-1340(ra) # 80200700 <uart_puts>
}
    80200c44:	0001                	nop
    80200c46:	70a2                	ld	ra,40(sp)
    80200c48:	7402                	ld	s0,32(sp)
    80200c4a:	6145                	addi	sp,sp,48
    80200c4c:	8082                	ret

0000000080200c4e <printint>:
static void printint(long long xx, int base, int sign, int width, int padzero){
    80200c4e:	7159                	addi	sp,sp,-112
    80200c50:	f486                	sd	ra,104(sp)
    80200c52:	f0a2                	sd	s0,96(sp)
    80200c54:	1880                	addi	s0,sp,112
    80200c56:	faa43423          	sd	a0,-88(s0)
    80200c5a:	87ae                	mv	a5,a1
    80200c5c:	faf42223          	sw	a5,-92(s0)
    80200c60:	87b2                	mv	a5,a2
    80200c62:	faf42023          	sw	a5,-96(s0)
    80200c66:	87b6                	mv	a5,a3
    80200c68:	f8f42e23          	sw	a5,-100(s0)
    80200c6c:	87ba                	mv	a5,a4
    80200c6e:	f8f42c23          	sw	a5,-104(s0)
    static char digits[] = "0123456789abcdef";
    char buf[32];
    int i = 0;
    80200c72:	fe042623          	sw	zero,-20(s0)
    unsigned long long x;

    if (sign && (sign = xx < 0))
    80200c76:	fa042783          	lw	a5,-96(s0)
    80200c7a:	2781                	sext.w	a5,a5
    80200c7c:	c39d                	beqz	a5,80200ca2 <printint+0x54>
    80200c7e:	fa843783          	ld	a5,-88(s0)
    80200c82:	93fd                	srli	a5,a5,0x3f
    80200c84:	0ff7f793          	zext.b	a5,a5
    80200c88:	faf42023          	sw	a5,-96(s0)
    80200c8c:	fa042783          	lw	a5,-96(s0)
    80200c90:	2781                	sext.w	a5,a5
    80200c92:	cb81                	beqz	a5,80200ca2 <printint+0x54>
        x = -(unsigned long long)xx;
    80200c94:	fa843783          	ld	a5,-88(s0)
    80200c98:	40f007b3          	neg	a5,a5
    80200c9c:	fef43023          	sd	a5,-32(s0)
    80200ca0:	a029                	j	80200caa <printint+0x5c>
    else
        x = xx;
    80200ca2:	fa843783          	ld	a5,-88(s0)
    80200ca6:	fef43023          	sd	a5,-32(s0)

    do {
        buf[i++] = digits[x % base];
    80200caa:	fa442783          	lw	a5,-92(s0)
    80200cae:	fe043703          	ld	a4,-32(s0)
    80200cb2:	02f77733          	remu	a4,a4,a5
    80200cb6:	fec42783          	lw	a5,-20(s0)
    80200cba:	0017869b          	addiw	a3,a5,1
    80200cbe:	fed42623          	sw	a3,-20(s0)
    80200cc2:	00043697          	auipc	a3,0x43
    80200cc6:	3fe68693          	addi	a3,a3,1022 # 802440c0 <digits.1>
    80200cca:	9736                	add	a4,a4,a3
    80200ccc:	00074703          	lbu	a4,0(a4)
    80200cd0:	17c1                	addi	a5,a5,-16
    80200cd2:	97a2                	add	a5,a5,s0
    80200cd4:	fce78423          	sb	a4,-56(a5)
    } while ((x /= base) != 0);
    80200cd8:	fa442783          	lw	a5,-92(s0)
    80200cdc:	fe043703          	ld	a4,-32(s0)
    80200ce0:	02f757b3          	divu	a5,a4,a5
    80200ce4:	fef43023          	sd	a5,-32(s0)
    80200ce8:	fe043783          	ld	a5,-32(s0)
    80200cec:	ffdd                	bnez	a5,80200caa <printint+0x5c>

    if (sign)
    80200cee:	fa042783          	lw	a5,-96(s0)
    80200cf2:	2781                	sext.w	a5,a5
    80200cf4:	cf89                	beqz	a5,80200d0e <printint+0xc0>
        buf[i++] = '-';
    80200cf6:	fec42783          	lw	a5,-20(s0)
    80200cfa:	0017871b          	addiw	a4,a5,1
    80200cfe:	fee42623          	sw	a4,-20(s0)
    80200d02:	17c1                	addi	a5,a5,-16
    80200d04:	97a2                	add	a5,a5,s0
    80200d06:	02d00713          	li	a4,45
    80200d0a:	fce78423          	sb	a4,-56(a5)

    // 计算需要补的填充字符数
    int pad = width - i;
    80200d0e:	f9c42783          	lw	a5,-100(s0)
    80200d12:	873e                	mv	a4,a5
    80200d14:	fec42783          	lw	a5,-20(s0)
    80200d18:	40f707bb          	subw	a5,a4,a5
    80200d1c:	fcf42e23          	sw	a5,-36(s0)
    while (pad-- > 0) {
    80200d20:	a839                	j	80200d3e <printint+0xf0>
        consputc(padzero ? '0' : ' ');
    80200d22:	f9842783          	lw	a5,-104(s0)
    80200d26:	2781                	sext.w	a5,a5
    80200d28:	c781                	beqz	a5,80200d30 <printint+0xe2>
    80200d2a:	03000793          	li	a5,48
    80200d2e:	a019                	j	80200d34 <printint+0xe6>
    80200d30:	02000793          	li	a5,32
    80200d34:	853e                	mv	a0,a5
    80200d36:	00000097          	auipc	ra,0x0
    80200d3a:	ec4080e7          	jalr	-316(ra) # 80200bfa <consputc>
    while (pad-- > 0) {
    80200d3e:	fdc42783          	lw	a5,-36(s0)
    80200d42:	fff7871b          	addiw	a4,a5,-1
    80200d46:	fce42e23          	sw	a4,-36(s0)
    80200d4a:	fcf04ce3          	bgtz	a5,80200d22 <printint+0xd4>
    }

    while (--i >= 0)
    80200d4e:	a829                	j	80200d68 <printint+0x11a>
        consputc(buf[i]);
    80200d50:	fec42783          	lw	a5,-20(s0)
    80200d54:	17c1                	addi	a5,a5,-16
    80200d56:	97a2                	add	a5,a5,s0
    80200d58:	fc87c783          	lbu	a5,-56(a5)
    80200d5c:	2781                	sext.w	a5,a5
    80200d5e:	853e                	mv	a0,a5
    80200d60:	00000097          	auipc	ra,0x0
    80200d64:	e9a080e7          	jalr	-358(ra) # 80200bfa <consputc>
    while (--i >= 0)
    80200d68:	fec42783          	lw	a5,-20(s0)
    80200d6c:	37fd                	addiw	a5,a5,-1
    80200d6e:	fef42623          	sw	a5,-20(s0)
    80200d72:	fec42783          	lw	a5,-20(s0)
    80200d76:	2781                	sext.w	a5,a5
    80200d78:	fc07dce3          	bgez	a5,80200d50 <printint+0x102>
}
    80200d7c:	0001                	nop
    80200d7e:	0001                	nop
    80200d80:	70a6                	ld	ra,104(sp)
    80200d82:	7406                	ld	s0,96(sp)
    80200d84:	6165                	addi	sp,sp,112
    80200d86:	8082                	ret

0000000080200d88 <vprintf>:
void vprintf(const char *fmt, va_list ap) {
    80200d88:	711d                	addi	sp,sp,-96
    80200d8a:	ec86                	sd	ra,88(sp)
    80200d8c:	e8a2                	sd	s0,80(sp)
    80200d8e:	1080                	addi	s0,sp,96
    80200d90:	faa43423          	sd	a0,-88(s0)
    80200d94:	fab43023          	sd	a1,-96(s0)
    int i, c;
    char *s;

    for(i = 0; (c = fmt[i] & 0xff) != 0; i++){
    80200d98:	fe042623          	sw	zero,-20(s0)
    80200d9c:	a945                	j	8020124c <vprintf+0x4c4>
        if(c != '%'){
    80200d9e:	fe842783          	lw	a5,-24(s0)
    80200da2:	0007871b          	sext.w	a4,a5
    80200da6:	02500793          	li	a5,37
    80200daa:	00f70c63          	beq	a4,a5,80200dc2 <vprintf+0x3a>
            buffer_char(c);
    80200dae:	fe842783          	lw	a5,-24(s0)
    80200db2:	0ff7f793          	zext.b	a5,a5
    80200db6:	853e                	mv	a0,a5
    80200db8:	00000097          	auipc	ra,0x0
    80200dbc:	db0080e7          	jalr	-592(ra) # 80200b68 <buffer_char>
            continue;
    80200dc0:	a149                	j	80201242 <vprintf+0x4ba>
        }
        flush_printf_buffer();
    80200dc2:	00000097          	auipc	ra,0x0
    80200dc6:	d52080e7          	jalr	-686(ra) # 80200b14 <flush_printf_buffer>
        int padzero = 0, width = 0;
    80200dca:	fc042e23          	sw	zero,-36(s0)
    80200dce:	fc042c23          	sw	zero,-40(s0)
        c = fmt[++i] & 0xff;
    80200dd2:	fec42783          	lw	a5,-20(s0)
    80200dd6:	2785                	addiw	a5,a5,1
    80200dd8:	fef42623          	sw	a5,-20(s0)
    80200ddc:	fec42783          	lw	a5,-20(s0)
    80200de0:	fa843703          	ld	a4,-88(s0)
    80200de4:	97ba                	add	a5,a5,a4
    80200de6:	0007c783          	lbu	a5,0(a5)
    80200dea:	fef42423          	sw	a5,-24(s0)
        if (c == '0') {
    80200dee:	fe842783          	lw	a5,-24(s0)
    80200df2:	0007871b          	sext.w	a4,a5
    80200df6:	03000793          	li	a5,48
    80200dfa:	06f71563          	bne	a4,a5,80200e64 <vprintf+0xdc>
            padzero = 1;
    80200dfe:	4785                	li	a5,1
    80200e00:	fcf42e23          	sw	a5,-36(s0)
            c = fmt[++i] & 0xff;
    80200e04:	fec42783          	lw	a5,-20(s0)
    80200e08:	2785                	addiw	a5,a5,1
    80200e0a:	fef42623          	sw	a5,-20(s0)
    80200e0e:	fec42783          	lw	a5,-20(s0)
    80200e12:	fa843703          	ld	a4,-88(s0)
    80200e16:	97ba                	add	a5,a5,a4
    80200e18:	0007c783          	lbu	a5,0(a5)
    80200e1c:	fef42423          	sw	a5,-24(s0)
        }
        while (c >= '0' && c <= '9') {
    80200e20:	a091                	j	80200e64 <vprintf+0xdc>
            width = width * 10 + (c - '0');
    80200e22:	fd842783          	lw	a5,-40(s0)
    80200e26:	873e                	mv	a4,a5
    80200e28:	87ba                	mv	a5,a4
    80200e2a:	0027979b          	slliw	a5,a5,0x2
    80200e2e:	9fb9                	addw	a5,a5,a4
    80200e30:	0017979b          	slliw	a5,a5,0x1
    80200e34:	0007871b          	sext.w	a4,a5
    80200e38:	fe842783          	lw	a5,-24(s0)
    80200e3c:	fd07879b          	addiw	a5,a5,-48
    80200e40:	2781                	sext.w	a5,a5
    80200e42:	9fb9                	addw	a5,a5,a4
    80200e44:	fcf42c23          	sw	a5,-40(s0)
            c = fmt[++i] & 0xff;
    80200e48:	fec42783          	lw	a5,-20(s0)
    80200e4c:	2785                	addiw	a5,a5,1
    80200e4e:	fef42623          	sw	a5,-20(s0)
    80200e52:	fec42783          	lw	a5,-20(s0)
    80200e56:	fa843703          	ld	a4,-88(s0)
    80200e5a:	97ba                	add	a5,a5,a4
    80200e5c:	0007c783          	lbu	a5,0(a5)
    80200e60:	fef42423          	sw	a5,-24(s0)
        while (c >= '0' && c <= '9') {
    80200e64:	fe842783          	lw	a5,-24(s0)
    80200e68:	0007871b          	sext.w	a4,a5
    80200e6c:	02f00793          	li	a5,47
    80200e70:	00e7da63          	bge	a5,a4,80200e84 <vprintf+0xfc>
    80200e74:	fe842783          	lw	a5,-24(s0)
    80200e78:	0007871b          	sext.w	a4,a5
    80200e7c:	03900793          	li	a5,57
    80200e80:	fae7d1e3          	bge	a5,a4,80200e22 <vprintf+0x9a>
        }
        int is_long = 0;
    80200e84:	fc042a23          	sw	zero,-44(s0)
        if(c == 'l') {
    80200e88:	fe842783          	lw	a5,-24(s0)
    80200e8c:	0007871b          	sext.w	a4,a5
    80200e90:	06c00793          	li	a5,108
    80200e94:	02f71863          	bne	a4,a5,80200ec4 <vprintf+0x13c>
            is_long = 1;
    80200e98:	4785                	li	a5,1
    80200e9a:	fcf42a23          	sw	a5,-44(s0)
            c = fmt[++i] & 0xff;
    80200e9e:	fec42783          	lw	a5,-20(s0)
    80200ea2:	2785                	addiw	a5,a5,1
    80200ea4:	fef42623          	sw	a5,-20(s0)
    80200ea8:	fec42783          	lw	a5,-20(s0)
    80200eac:	fa843703          	ld	a4,-88(s0)
    80200eb0:	97ba                	add	a5,a5,a4
    80200eb2:	0007c783          	lbu	a5,0(a5)
    80200eb6:	fef42423          	sw	a5,-24(s0)
            if(c == 0)
    80200eba:	fe842783          	lw	a5,-24(s0)
    80200ebe:	2781                	sext.w	a5,a5
    80200ec0:	3a078563          	beqz	a5,8020126a <vprintf+0x4e2>
                break;
        }
        switch(c){
    80200ec4:	fe842783          	lw	a5,-24(s0)
    80200ec8:	0007871b          	sext.w	a4,a5
    80200ecc:	02500793          	li	a5,37
    80200ed0:	2ef70d63          	beq	a4,a5,802011ca <vprintf+0x442>
    80200ed4:	fe842783          	lw	a5,-24(s0)
    80200ed8:	0007871b          	sext.w	a4,a5
    80200edc:	02500793          	li	a5,37
    80200ee0:	2ef74c63          	blt	a4,a5,802011d8 <vprintf+0x450>
    80200ee4:	fe842783          	lw	a5,-24(s0)
    80200ee8:	0007871b          	sext.w	a4,a5
    80200eec:	07800793          	li	a5,120
    80200ef0:	2ee7c463          	blt	a5,a4,802011d8 <vprintf+0x450>
    80200ef4:	fe842783          	lw	a5,-24(s0)
    80200ef8:	0007871b          	sext.w	a4,a5
    80200efc:	06200793          	li	a5,98
    80200f00:	2cf74c63          	blt	a4,a5,802011d8 <vprintf+0x450>
    80200f04:	fe842783          	lw	a5,-24(s0)
    80200f08:	f9e7869b          	addiw	a3,a5,-98
    80200f0c:	0006871b          	sext.w	a4,a3
    80200f10:	47d9                	li	a5,22
    80200f12:	2ce7e363          	bltu	a5,a4,802011d8 <vprintf+0x450>
    80200f16:	02069793          	slli	a5,a3,0x20
    80200f1a:	9381                	srli	a5,a5,0x20
    80200f1c:	00279713          	slli	a4,a5,0x2
    80200f20:	00016797          	auipc	a5,0x16
    80200f24:	a8c78793          	addi	a5,a5,-1396 # 802169ac <user_test_table+0x9c>
    80200f28:	97ba                	add	a5,a5,a4
    80200f2a:	439c                	lw	a5,0(a5)
    80200f2c:	0007871b          	sext.w	a4,a5
    80200f30:	00016797          	auipc	a5,0x16
    80200f34:	a7c78793          	addi	a5,a5,-1412 # 802169ac <user_test_table+0x9c>
    80200f38:	97ba                	add	a5,a5,a4
    80200f3a:	8782                	jr	a5
        case 'd':
            if(is_long)
    80200f3c:	fd442783          	lw	a5,-44(s0)
    80200f40:	2781                	sext.w	a5,a5
    80200f42:	c785                	beqz	a5,80200f6a <vprintf+0x1e2>
                printint(va_arg(ap, long long), 10, 1, width, padzero);
    80200f44:	fa043783          	ld	a5,-96(s0)
    80200f48:	00878713          	addi	a4,a5,8
    80200f4c:	fae43023          	sd	a4,-96(s0)
    80200f50:	639c                	ld	a5,0(a5)
    80200f52:	fdc42703          	lw	a4,-36(s0)
    80200f56:	fd842683          	lw	a3,-40(s0)
    80200f5a:	4605                	li	a2,1
    80200f5c:	45a9                	li	a1,10
    80200f5e:	853e                	mv	a0,a5
    80200f60:	00000097          	auipc	ra,0x0
    80200f64:	cee080e7          	jalr	-786(ra) # 80200c4e <printint>
            else
                printint(va_arg(ap, int), 10, 1, width, padzero);
            break;
    80200f68:	ace9                	j	80201242 <vprintf+0x4ba>
                printint(va_arg(ap, int), 10, 1, width, padzero);
    80200f6a:	fa043783          	ld	a5,-96(s0)
    80200f6e:	00878713          	addi	a4,a5,8
    80200f72:	fae43023          	sd	a4,-96(s0)
    80200f76:	439c                	lw	a5,0(a5)
    80200f78:	853e                	mv	a0,a5
    80200f7a:	fdc42703          	lw	a4,-36(s0)
    80200f7e:	fd842783          	lw	a5,-40(s0)
    80200f82:	86be                	mv	a3,a5
    80200f84:	4605                	li	a2,1
    80200f86:	45a9                	li	a1,10
    80200f88:	00000097          	auipc	ra,0x0
    80200f8c:	cc6080e7          	jalr	-826(ra) # 80200c4e <printint>
            break;
    80200f90:	ac4d                	j	80201242 <vprintf+0x4ba>
        case 'x':
            if(is_long)
    80200f92:	fd442783          	lw	a5,-44(s0)
    80200f96:	2781                	sext.w	a5,a5
    80200f98:	c785                	beqz	a5,80200fc0 <vprintf+0x238>
                printint(va_arg(ap, long long), 16, 0, width, padzero);
    80200f9a:	fa043783          	ld	a5,-96(s0)
    80200f9e:	00878713          	addi	a4,a5,8
    80200fa2:	fae43023          	sd	a4,-96(s0)
    80200fa6:	639c                	ld	a5,0(a5)
    80200fa8:	fdc42703          	lw	a4,-36(s0)
    80200fac:	fd842683          	lw	a3,-40(s0)
    80200fb0:	4601                	li	a2,0
    80200fb2:	45c1                	li	a1,16
    80200fb4:	853e                	mv	a0,a5
    80200fb6:	00000097          	auipc	ra,0x0
    80200fba:	c98080e7          	jalr	-872(ra) # 80200c4e <printint>
            else
                printint(va_arg(ap, int), 16, 0, width, padzero);
            break;
    80200fbe:	a451                	j	80201242 <vprintf+0x4ba>
                printint(va_arg(ap, int), 16, 0, width, padzero);
    80200fc0:	fa043783          	ld	a5,-96(s0)
    80200fc4:	00878713          	addi	a4,a5,8
    80200fc8:	fae43023          	sd	a4,-96(s0)
    80200fcc:	439c                	lw	a5,0(a5)
    80200fce:	853e                	mv	a0,a5
    80200fd0:	fdc42703          	lw	a4,-36(s0)
    80200fd4:	fd842783          	lw	a5,-40(s0)
    80200fd8:	86be                	mv	a3,a5
    80200fda:	4601                	li	a2,0
    80200fdc:	45c1                	li	a1,16
    80200fde:	00000097          	auipc	ra,0x0
    80200fe2:	c70080e7          	jalr	-912(ra) # 80200c4e <printint>
            break;
    80200fe6:	acb1                	j	80201242 <vprintf+0x4ba>
        case 'u':
            if(is_long)
    80200fe8:	fd442783          	lw	a5,-44(s0)
    80200fec:	2781                	sext.w	a5,a5
    80200fee:	c78d                	beqz	a5,80201018 <vprintf+0x290>
                printint(va_arg(ap, unsigned long long), 10, 0, width, padzero);
    80200ff0:	fa043783          	ld	a5,-96(s0)
    80200ff4:	00878713          	addi	a4,a5,8
    80200ff8:	fae43023          	sd	a4,-96(s0)
    80200ffc:	639c                	ld	a5,0(a5)
    80200ffe:	853e                	mv	a0,a5
    80201000:	fdc42703          	lw	a4,-36(s0)
    80201004:	fd842783          	lw	a5,-40(s0)
    80201008:	86be                	mv	a3,a5
    8020100a:	4601                	li	a2,0
    8020100c:	45a9                	li	a1,10
    8020100e:	00000097          	auipc	ra,0x0
    80201012:	c40080e7          	jalr	-960(ra) # 80200c4e <printint>
            else
                printint(va_arg(ap, unsigned int), 10, 0, width, padzero);
            break;
    80201016:	a435                	j	80201242 <vprintf+0x4ba>
                printint(va_arg(ap, unsigned int), 10, 0, width, padzero);
    80201018:	fa043783          	ld	a5,-96(s0)
    8020101c:	00878713          	addi	a4,a5,8
    80201020:	fae43023          	sd	a4,-96(s0)
    80201024:	439c                	lw	a5,0(a5)
    80201026:	1782                	slli	a5,a5,0x20
    80201028:	9381                	srli	a5,a5,0x20
    8020102a:	fdc42703          	lw	a4,-36(s0)
    8020102e:	fd842683          	lw	a3,-40(s0)
    80201032:	4601                	li	a2,0
    80201034:	45a9                	li	a1,10
    80201036:	853e                	mv	a0,a5
    80201038:	00000097          	auipc	ra,0x0
    8020103c:	c16080e7          	jalr	-1002(ra) # 80200c4e <printint>
            break;
    80201040:	a409                	j	80201242 <vprintf+0x4ba>
        case 'c':
            consputc(va_arg(ap, int));
    80201042:	fa043783          	ld	a5,-96(s0)
    80201046:	00878713          	addi	a4,a5,8
    8020104a:	fae43023          	sd	a4,-96(s0)
    8020104e:	439c                	lw	a5,0(a5)
    80201050:	853e                	mv	a0,a5
    80201052:	00000097          	auipc	ra,0x0
    80201056:	ba8080e7          	jalr	-1112(ra) # 80200bfa <consputc>
            break;
    8020105a:	a2e5                	j	80201242 <vprintf+0x4ba>
        case 's':
            if((s = va_arg(ap, char*)) == 0)
    8020105c:	fa043783          	ld	a5,-96(s0)
    80201060:	00878713          	addi	a4,a5,8
    80201064:	fae43023          	sd	a4,-96(s0)
    80201068:	639c                	ld	a5,0(a5)
    8020106a:	fef43023          	sd	a5,-32(s0)
    8020106e:	fe043783          	ld	a5,-32(s0)
    80201072:	e799                	bnez	a5,80201080 <vprintf+0x2f8>
                s = "(null)";
    80201074:	00016797          	auipc	a5,0x16
    80201078:	91478793          	addi	a5,a5,-1772 # 80216988 <user_test_table+0x78>
    8020107c:	fef43023          	sd	a5,-32(s0)
            consputs(s);
    80201080:	fe043503          	ld	a0,-32(s0)
    80201084:	00000097          	auipc	ra,0x0
    80201088:	ba0080e7          	jalr	-1120(ra) # 80200c24 <consputs>
            break;
    8020108c:	aa5d                	j	80201242 <vprintf+0x4ba>
        case 'p': {
            unsigned long ptr = (unsigned long)va_arg(ap, void*);
    8020108e:	fa043783          	ld	a5,-96(s0)
    80201092:	00878713          	addi	a4,a5,8
    80201096:	fae43023          	sd	a4,-96(s0)
    8020109a:	639c                	ld	a5,0(a5)
    8020109c:	fcf43423          	sd	a5,-56(s0)
            consputs("0x");
    802010a0:	00016517          	auipc	a0,0x16
    802010a4:	8f050513          	addi	a0,a0,-1808 # 80216990 <user_test_table+0x80>
    802010a8:	00000097          	auipc	ra,0x0
    802010ac:	b7c080e7          	jalr	-1156(ra) # 80200c24 <consputs>
            char buf[17];
            int i;
            for (i = 0; i < 16; i++) {
    802010b0:	fc042823          	sw	zero,-48(s0)
    802010b4:	a0a1                	j	802010fc <vprintf+0x374>
                int shift = (15 - i) * 4;
    802010b6:	47bd                	li	a5,15
    802010b8:	fd042703          	lw	a4,-48(s0)
    802010bc:	9f99                	subw	a5,a5,a4
    802010be:	2781                	sext.w	a5,a5
    802010c0:	0027979b          	slliw	a5,a5,0x2
    802010c4:	fcf42223          	sw	a5,-60(s0)
                buf[i] = "0123456789abcdef"[(ptr >> shift) & 0xf];
    802010c8:	fc442783          	lw	a5,-60(s0)
    802010cc:	873e                	mv	a4,a5
    802010ce:	fc843783          	ld	a5,-56(s0)
    802010d2:	00e7d7b3          	srl	a5,a5,a4
    802010d6:	8bbd                	andi	a5,a5,15
    802010d8:	00016717          	auipc	a4,0x16
    802010dc:	8c070713          	addi	a4,a4,-1856 # 80216998 <user_test_table+0x88>
    802010e0:	97ba                	add	a5,a5,a4
    802010e2:	0007c703          	lbu	a4,0(a5)
    802010e6:	fd042783          	lw	a5,-48(s0)
    802010ea:	17c1                	addi	a5,a5,-16
    802010ec:	97a2                	add	a5,a5,s0
    802010ee:	fce78023          	sb	a4,-64(a5)
            for (i = 0; i < 16; i++) {
    802010f2:	fd042783          	lw	a5,-48(s0)
    802010f6:	2785                	addiw	a5,a5,1
    802010f8:	fcf42823          	sw	a5,-48(s0)
    802010fc:	fd042783          	lw	a5,-48(s0)
    80201100:	0007871b          	sext.w	a4,a5
    80201104:	47bd                	li	a5,15
    80201106:	fae7d8e3          	bge	a5,a4,802010b6 <vprintf+0x32e>
            }
            buf[16] = '\0';
    8020110a:	fc040023          	sb	zero,-64(s0)
            consputs(buf);
    8020110e:	fb040793          	addi	a5,s0,-80
    80201112:	853e                	mv	a0,a5
    80201114:	00000097          	auipc	ra,0x0
    80201118:	b10080e7          	jalr	-1264(ra) # 80200c24 <consputs>
            break;
    8020111c:	a21d                	j	80201242 <vprintf+0x4ba>
        }
        case 'b':
            if(is_long)
    8020111e:	fd442783          	lw	a5,-44(s0)
    80201122:	2781                	sext.w	a5,a5
    80201124:	c785                	beqz	a5,8020114c <vprintf+0x3c4>
                printint(va_arg(ap, long long), 2, 0, width, padzero);
    80201126:	fa043783          	ld	a5,-96(s0)
    8020112a:	00878713          	addi	a4,a5,8
    8020112e:	fae43023          	sd	a4,-96(s0)
    80201132:	639c                	ld	a5,0(a5)
    80201134:	fdc42703          	lw	a4,-36(s0)
    80201138:	fd842683          	lw	a3,-40(s0)
    8020113c:	4601                	li	a2,0
    8020113e:	4589                	li	a1,2
    80201140:	853e                	mv	a0,a5
    80201142:	00000097          	auipc	ra,0x0
    80201146:	b0c080e7          	jalr	-1268(ra) # 80200c4e <printint>
            else
                printint(va_arg(ap, int), 2, 0, width, padzero);
            break;
    8020114a:	a8e5                	j	80201242 <vprintf+0x4ba>
                printint(va_arg(ap, int), 2, 0, width, padzero);
    8020114c:	fa043783          	ld	a5,-96(s0)
    80201150:	00878713          	addi	a4,a5,8
    80201154:	fae43023          	sd	a4,-96(s0)
    80201158:	439c                	lw	a5,0(a5)
    8020115a:	853e                	mv	a0,a5
    8020115c:	fdc42703          	lw	a4,-36(s0)
    80201160:	fd842783          	lw	a5,-40(s0)
    80201164:	86be                	mv	a3,a5
    80201166:	4601                	li	a2,0
    80201168:	4589                	li	a1,2
    8020116a:	00000097          	auipc	ra,0x0
    8020116e:	ae4080e7          	jalr	-1308(ra) # 80200c4e <printint>
            break;
    80201172:	a8c1                	j	80201242 <vprintf+0x4ba>
        case 'o':
            if(is_long)
    80201174:	fd442783          	lw	a5,-44(s0)
    80201178:	2781                	sext.w	a5,a5
    8020117a:	c785                	beqz	a5,802011a2 <vprintf+0x41a>
                printint(va_arg(ap, long long), 8, 0, width, padzero);
    8020117c:	fa043783          	ld	a5,-96(s0)
    80201180:	00878713          	addi	a4,a5,8
    80201184:	fae43023          	sd	a4,-96(s0)
    80201188:	639c                	ld	a5,0(a5)
    8020118a:	fdc42703          	lw	a4,-36(s0)
    8020118e:	fd842683          	lw	a3,-40(s0)
    80201192:	4601                	li	a2,0
    80201194:	45a1                	li	a1,8
    80201196:	853e                	mv	a0,a5
    80201198:	00000097          	auipc	ra,0x0
    8020119c:	ab6080e7          	jalr	-1354(ra) # 80200c4e <printint>
            else
                printint(va_arg(ap, int), 8, 0, width, padzero);
            break;
    802011a0:	a04d                	j	80201242 <vprintf+0x4ba>
                printint(va_arg(ap, int), 8, 0, width, padzero);
    802011a2:	fa043783          	ld	a5,-96(s0)
    802011a6:	00878713          	addi	a4,a5,8
    802011aa:	fae43023          	sd	a4,-96(s0)
    802011ae:	439c                	lw	a5,0(a5)
    802011b0:	853e                	mv	a0,a5
    802011b2:	fdc42703          	lw	a4,-36(s0)
    802011b6:	fd842783          	lw	a5,-40(s0)
    802011ba:	86be                	mv	a3,a5
    802011bc:	4601                	li	a2,0
    802011be:	45a1                	li	a1,8
    802011c0:	00000097          	auipc	ra,0x0
    802011c4:	a8e080e7          	jalr	-1394(ra) # 80200c4e <printint>
            break;
    802011c8:	a8ad                	j	80201242 <vprintf+0x4ba>
        case '%':
            buffer_char('%');
    802011ca:	02500513          	li	a0,37
    802011ce:	00000097          	auipc	ra,0x0
    802011d2:	99a080e7          	jalr	-1638(ra) # 80200b68 <buffer_char>
            break;
    802011d6:	a0b5                	j	80201242 <vprintf+0x4ba>
        default:
            buffer_char('%');
    802011d8:	02500513          	li	a0,37
    802011dc:	00000097          	auipc	ra,0x0
    802011e0:	98c080e7          	jalr	-1652(ra) # 80200b68 <buffer_char>
            if(padzero) buffer_char('0');
    802011e4:	fdc42783          	lw	a5,-36(s0)
    802011e8:	2781                	sext.w	a5,a5
    802011ea:	c799                	beqz	a5,802011f8 <vprintf+0x470>
    802011ec:	03000513          	li	a0,48
    802011f0:	00000097          	auipc	ra,0x0
    802011f4:	978080e7          	jalr	-1672(ra) # 80200b68 <buffer_char>
            if(width) buffer_char('0' + width);
    802011f8:	fd842783          	lw	a5,-40(s0)
    802011fc:	2781                	sext.w	a5,a5
    802011fe:	cf91                	beqz	a5,8020121a <vprintf+0x492>
    80201200:	fd842783          	lw	a5,-40(s0)
    80201204:	0ff7f793          	zext.b	a5,a5
    80201208:	0307879b          	addiw	a5,a5,48
    8020120c:	0ff7f793          	zext.b	a5,a5
    80201210:	853e                	mv	a0,a5
    80201212:	00000097          	auipc	ra,0x0
    80201216:	956080e7          	jalr	-1706(ra) # 80200b68 <buffer_char>
            if(is_long) buffer_char('l');
    8020121a:	fd442783          	lw	a5,-44(s0)
    8020121e:	2781                	sext.w	a5,a5
    80201220:	c799                	beqz	a5,8020122e <vprintf+0x4a6>
    80201222:	06c00513          	li	a0,108
    80201226:	00000097          	auipc	ra,0x0
    8020122a:	942080e7          	jalr	-1726(ra) # 80200b68 <buffer_char>
            buffer_char(c);
    8020122e:	fe842783          	lw	a5,-24(s0)
    80201232:	0ff7f793          	zext.b	a5,a5
    80201236:	853e                	mv	a0,a5
    80201238:	00000097          	auipc	ra,0x0
    8020123c:	930080e7          	jalr	-1744(ra) # 80200b68 <buffer_char>
            break;
    80201240:	0001                	nop
    for(i = 0; (c = fmt[i] & 0xff) != 0; i++){
    80201242:	fec42783          	lw	a5,-20(s0)
    80201246:	2785                	addiw	a5,a5,1
    80201248:	fef42623          	sw	a5,-20(s0)
    8020124c:	fec42783          	lw	a5,-20(s0)
    80201250:	fa843703          	ld	a4,-88(s0)
    80201254:	97ba                	add	a5,a5,a4
    80201256:	0007c783          	lbu	a5,0(a5)
    8020125a:	fef42423          	sw	a5,-24(s0)
    8020125e:	fe842783          	lw	a5,-24(s0)
    80201262:	2781                	sext.w	a5,a5
    80201264:	b2079de3          	bnez	a5,80200d9e <vprintf+0x16>
    80201268:	a011                	j	8020126c <vprintf+0x4e4>
                break;
    8020126a:	0001                	nop
        }
    }
    flush_printf_buffer();
    8020126c:	00000097          	auipc	ra,0x0
    80201270:	8a8080e7          	jalr	-1880(ra) # 80200b14 <flush_printf_buffer>
}
    80201274:	0001                	nop
    80201276:	60e6                	ld	ra,88(sp)
    80201278:	6446                	ld	s0,80(sp)
    8020127a:	6125                	addi	sp,sp,96
    8020127c:	8082                	ret

000000008020127e <printf>:
void printf(const char *fmt, ...) {
    8020127e:	7159                	addi	sp,sp,-112
    80201280:	f406                	sd	ra,40(sp)
    80201282:	f022                	sd	s0,32(sp)
    80201284:	1800                	addi	s0,sp,48
    80201286:	fca43c23          	sd	a0,-40(s0)
    8020128a:	e40c                	sd	a1,8(s0)
    8020128c:	e810                	sd	a2,16(s0)
    8020128e:	ec14                	sd	a3,24(s0)
    80201290:	f018                	sd	a4,32(s0)
    80201292:	f41c                	sd	a5,40(s0)
    80201294:	03043823          	sd	a6,48(s0)
    80201298:	03143c23          	sd	a7,56(s0)
    va_list ap;
    va_start(ap, fmt);
    8020129c:	04040793          	addi	a5,s0,64
    802012a0:	fcf43823          	sd	a5,-48(s0)
    802012a4:	fd043783          	ld	a5,-48(s0)
    802012a8:	fc878793          	addi	a5,a5,-56
    802012ac:	fef43423          	sd	a5,-24(s0)
    vprintf(fmt, ap);
    802012b0:	fe843783          	ld	a5,-24(s0)
    802012b4:	85be                	mv	a1,a5
    802012b6:	fd843503          	ld	a0,-40(s0)
    802012ba:	00000097          	auipc	ra,0x0
    802012be:	ace080e7          	jalr	-1330(ra) # 80200d88 <vprintf>
    va_end(ap);
}
    802012c2:	0001                	nop
    802012c4:	70a2                	ld	ra,40(sp)
    802012c6:	7402                	ld	s0,32(sp)
    802012c8:	6165                	addi	sp,sp,112
    802012ca:	8082                	ret

00000000802012cc <int_to_str>:
// 内部辅助：将数字转为字符串（支持10/16/8/2进制）
static int int_to_str(char *buf, unsigned long long x, int base, int sign) {
    802012cc:	711d                	addi	sp,sp,-96
    802012ce:	eca2                	sd	s0,88(sp)
    802012d0:	1080                	addi	s0,sp,96
    802012d2:	faa43c23          	sd	a0,-72(s0)
    802012d6:	fab43823          	sd	a1,-80(s0)
    802012da:	87b2                	mv	a5,a2
    802012dc:	8736                	mv	a4,a3
    802012de:	faf42623          	sw	a5,-84(s0)
    802012e2:	87ba                	mv	a5,a4
    802012e4:	faf42423          	sw	a5,-88(s0)
    static char digits[] = "0123456789abcdef";
    char tmp[32];
    int i = 0, len = 0;
    802012e8:	fe042623          	sw	zero,-20(s0)
    802012ec:	fe042423          	sw	zero,-24(s0)
    if (sign && (long long)x < 0) {
    802012f0:	fa842783          	lw	a5,-88(s0)
    802012f4:	2781                	sext.w	a5,a5
    802012f6:	cb8d                	beqz	a5,80201328 <int_to_str+0x5c>
    802012f8:	fb043783          	ld	a5,-80(s0)
    802012fc:	0207d663          	bgez	a5,80201328 <int_to_str+0x5c>
        x = -(long long)x;
    80201300:	fb043783          	ld	a5,-80(s0)
    80201304:	40f007b3          	neg	a5,a5
    80201308:	faf43823          	sd	a5,-80(s0)
        buf[len++] = '-';
    8020130c:	fe842783          	lw	a5,-24(s0)
    80201310:	0017871b          	addiw	a4,a5,1
    80201314:	fee42423          	sw	a4,-24(s0)
    80201318:	873e                	mv	a4,a5
    8020131a:	fb843783          	ld	a5,-72(s0)
    8020131e:	97ba                	add	a5,a5,a4
    80201320:	02d00713          	li	a4,45
    80201324:	00e78023          	sb	a4,0(a5)
    }
    do {
        tmp[i++] = digits[x % base];
    80201328:	fac42783          	lw	a5,-84(s0)
    8020132c:	fb043703          	ld	a4,-80(s0)
    80201330:	02f77733          	remu	a4,a4,a5
    80201334:	fec42783          	lw	a5,-20(s0)
    80201338:	0017869b          	addiw	a3,a5,1
    8020133c:	fed42623          	sw	a3,-20(s0)
    80201340:	00043697          	auipc	a3,0x43
    80201344:	d9868693          	addi	a3,a3,-616 # 802440d8 <digits.0>
    80201348:	9736                	add	a4,a4,a3
    8020134a:	00074703          	lbu	a4,0(a4)
    8020134e:	17c1                	addi	a5,a5,-16
    80201350:	97a2                	add	a5,a5,s0
    80201352:	fce78c23          	sb	a4,-40(a5)
        x /= base;
    80201356:	fac42783          	lw	a5,-84(s0)
    8020135a:	fb043703          	ld	a4,-80(s0)
    8020135e:	02f757b3          	divu	a5,a4,a5
    80201362:	faf43823          	sd	a5,-80(s0)
    } while (x);
    80201366:	fb043783          	ld	a5,-80(s0)
    8020136a:	ffdd                	bnez	a5,80201328 <int_to_str+0x5c>
    while (i > 0)
    8020136c:	a805                	j	8020139c <int_to_str+0xd0>
        buf[len++] = tmp[--i];
    8020136e:	fec42783          	lw	a5,-20(s0)
    80201372:	37fd                	addiw	a5,a5,-1
    80201374:	fef42623          	sw	a5,-20(s0)
    80201378:	fe842783          	lw	a5,-24(s0)
    8020137c:	0017871b          	addiw	a4,a5,1
    80201380:	fee42423          	sw	a4,-24(s0)
    80201384:	873e                	mv	a4,a5
    80201386:	fb843783          	ld	a5,-72(s0)
    8020138a:	97ba                	add	a5,a5,a4
    8020138c:	fec42703          	lw	a4,-20(s0)
    80201390:	1741                	addi	a4,a4,-16
    80201392:	9722                	add	a4,a4,s0
    80201394:	fd874703          	lbu	a4,-40(a4)
    80201398:	00e78023          	sb	a4,0(a5)
    while (i > 0)
    8020139c:	fec42783          	lw	a5,-20(s0)
    802013a0:	2781                	sext.w	a5,a5
    802013a2:	fcf046e3          	bgtz	a5,8020136e <int_to_str+0xa2>
    buf[len] = '\0';
    802013a6:	fe842783          	lw	a5,-24(s0)
    802013aa:	fb843703          	ld	a4,-72(s0)
    802013ae:	97ba                	add	a5,a5,a4
    802013b0:	00078023          	sb	zero,0(a5)
    return len;
    802013b4:	fe842783          	lw	a5,-24(s0)
}
    802013b8:	853e                	mv	a0,a5
    802013ba:	6466                	ld	s0,88(sp)
    802013bc:	6125                	addi	sp,sp,96
    802013be:	8082                	ret

00000000802013c0 <vsnprintf>:

int vsnprintf(char *buf, size_t size, const char *fmt, va_list ap) {
    802013c0:	7171                	addi	sp,sp,-176
    802013c2:	f506                	sd	ra,168(sp)
    802013c4:	f122                	sd	s0,160(sp)
    802013c6:	1900                	addi	s0,sp,176
    802013c8:	f6a43423          	sd	a0,-152(s0)
    802013cc:	f6b43023          	sd	a1,-160(s0)
    802013d0:	f4c43c23          	sd	a2,-168(s0)
    802013d4:	f4d43823          	sd	a3,-176(s0)
    size_t pos = 0;
    802013d8:	fe043423          	sd	zero,-24(s0)
    int i, c;
    char *s;
    for (i = 0; (c = fmt[i] & 0xff) != 0 && pos + 1 < size; i++) {
    802013dc:	fe042223          	sw	zero,-28(s0)
    802013e0:	a539                	j	802019ee <vsnprintf+0x62e>
        if (c != '%') {
    802013e2:	fe042783          	lw	a5,-32(s0)
    802013e6:	0007871b          	sext.w	a4,a5
    802013ea:	02500793          	li	a5,37
    802013ee:	02f70263          	beq	a4,a5,80201412 <vsnprintf+0x52>
            buf[pos++] = c;
    802013f2:	fe843783          	ld	a5,-24(s0)
    802013f6:	00178713          	addi	a4,a5,1
    802013fa:	fee43423          	sd	a4,-24(s0)
    802013fe:	f6843703          	ld	a4,-152(s0)
    80201402:	97ba                	add	a5,a5,a4
    80201404:	fe042703          	lw	a4,-32(s0)
    80201408:	0ff77713          	zext.b	a4,a4
    8020140c:	00e78023          	sb	a4,0(a5)
            continue;
    80201410:	abd1                	j	802019e4 <vsnprintf+0x624>
        }
        int padzero = 0, width = 0, is_long = 0;
    80201412:	fc042a23          	sw	zero,-44(s0)
    80201416:	fc042823          	sw	zero,-48(s0)
    8020141a:	fc042623          	sw	zero,-52(s0)
        c = fmt[++i] & 0xff;
    8020141e:	fe442783          	lw	a5,-28(s0)
    80201422:	2785                	addiw	a5,a5,1
    80201424:	fef42223          	sw	a5,-28(s0)
    80201428:	fe442783          	lw	a5,-28(s0)
    8020142c:	f5843703          	ld	a4,-168(s0)
    80201430:	97ba                	add	a5,a5,a4
    80201432:	0007c783          	lbu	a5,0(a5)
    80201436:	fef42023          	sw	a5,-32(s0)
        if (c == '0') {
    8020143a:	fe042783          	lw	a5,-32(s0)
    8020143e:	0007871b          	sext.w	a4,a5
    80201442:	03000793          	li	a5,48
    80201446:	06f71563          	bne	a4,a5,802014b0 <vsnprintf+0xf0>
            padzero = 1;
    8020144a:	4785                	li	a5,1
    8020144c:	fcf42a23          	sw	a5,-44(s0)
            c = fmt[++i] & 0xff;
    80201450:	fe442783          	lw	a5,-28(s0)
    80201454:	2785                	addiw	a5,a5,1
    80201456:	fef42223          	sw	a5,-28(s0)
    8020145a:	fe442783          	lw	a5,-28(s0)
    8020145e:	f5843703          	ld	a4,-168(s0)
    80201462:	97ba                	add	a5,a5,a4
    80201464:	0007c783          	lbu	a5,0(a5)
    80201468:	fef42023          	sw	a5,-32(s0)
        }
        while (c >= '0' && c <= '9') {
    8020146c:	a091                	j	802014b0 <vsnprintf+0xf0>
            width = width * 10 + (c - '0');
    8020146e:	fd042783          	lw	a5,-48(s0)
    80201472:	873e                	mv	a4,a5
    80201474:	87ba                	mv	a5,a4
    80201476:	0027979b          	slliw	a5,a5,0x2
    8020147a:	9fb9                	addw	a5,a5,a4
    8020147c:	0017979b          	slliw	a5,a5,0x1
    80201480:	0007871b          	sext.w	a4,a5
    80201484:	fe042783          	lw	a5,-32(s0)
    80201488:	fd07879b          	addiw	a5,a5,-48
    8020148c:	2781                	sext.w	a5,a5
    8020148e:	9fb9                	addw	a5,a5,a4
    80201490:	fcf42823          	sw	a5,-48(s0)
            c = fmt[++i] & 0xff;
    80201494:	fe442783          	lw	a5,-28(s0)
    80201498:	2785                	addiw	a5,a5,1
    8020149a:	fef42223          	sw	a5,-28(s0)
    8020149e:	fe442783          	lw	a5,-28(s0)
    802014a2:	f5843703          	ld	a4,-168(s0)
    802014a6:	97ba                	add	a5,a5,a4
    802014a8:	0007c783          	lbu	a5,0(a5)
    802014ac:	fef42023          	sw	a5,-32(s0)
        while (c >= '0' && c <= '9') {
    802014b0:	fe042783          	lw	a5,-32(s0)
    802014b4:	0007871b          	sext.w	a4,a5
    802014b8:	02f00793          	li	a5,47
    802014bc:	00e7da63          	bge	a5,a4,802014d0 <vsnprintf+0x110>
    802014c0:	fe042783          	lw	a5,-32(s0)
    802014c4:	0007871b          	sext.w	a4,a5
    802014c8:	03900793          	li	a5,57
    802014cc:	fae7d1e3          	bge	a5,a4,8020146e <vsnprintf+0xae>
        }
        if (c == 'l') {
    802014d0:	fe042783          	lw	a5,-32(s0)
    802014d4:	0007871b          	sext.w	a4,a5
    802014d8:	06c00793          	li	a5,108
    802014dc:	02f71863          	bne	a4,a5,8020150c <vsnprintf+0x14c>
            is_long = 1;
    802014e0:	4785                	li	a5,1
    802014e2:	fcf42623          	sw	a5,-52(s0)
            c = fmt[++i] & 0xff;
    802014e6:	fe442783          	lw	a5,-28(s0)
    802014ea:	2785                	addiw	a5,a5,1
    802014ec:	fef42223          	sw	a5,-28(s0)
    802014f0:	fe442783          	lw	a5,-28(s0)
    802014f4:	f5843703          	ld	a4,-168(s0)
    802014f8:	97ba                	add	a5,a5,a4
    802014fa:	0007c783          	lbu	a5,0(a5)
    802014fe:	fef42023          	sw	a5,-32(s0)
            if (c == 0) break;
    80201502:	fe042783          	lw	a5,-32(s0)
    80201506:	2781                	sext.w	a5,a5
    80201508:	50078863          	beqz	a5,80201a18 <vsnprintf+0x658>
        }
        char numbuf[32];
        int nlen = 0;
    8020150c:	fc042423          	sw	zero,-56(s0)
        switch (c) {
    80201510:	fe042783          	lw	a5,-32(s0)
    80201514:	0007871b          	sext.w	a4,a5
    80201518:	02500793          	li	a5,37
    8020151c:	3ef70663          	beq	a4,a5,80201908 <vsnprintf+0x548>
    80201520:	fe042783          	lw	a5,-32(s0)
    80201524:	0007871b          	sext.w	a4,a5
    80201528:	02500793          	li	a5,37
    8020152c:	3ef74663          	blt	a4,a5,80201918 <vsnprintf+0x558>
    80201530:	fe042783          	lw	a5,-32(s0)
    80201534:	0007871b          	sext.w	a4,a5
    80201538:	07800793          	li	a5,120
    8020153c:	3ce7ce63          	blt	a5,a4,80201918 <vsnprintf+0x558>
    80201540:	fe042783          	lw	a5,-32(s0)
    80201544:	0007871b          	sext.w	a4,a5
    80201548:	06200793          	li	a5,98
    8020154c:	3cf74663          	blt	a4,a5,80201918 <vsnprintf+0x558>
    80201550:	fe042783          	lw	a5,-32(s0)
    80201554:	f9e7869b          	addiw	a3,a5,-98
    80201558:	0006871b          	sext.w	a4,a3
    8020155c:	47d9                	li	a5,22
    8020155e:	3ae7ed63          	bltu	a5,a4,80201918 <vsnprintf+0x558>
    80201562:	02069793          	slli	a5,a3,0x20
    80201566:	9381                	srli	a5,a5,0x20
    80201568:	00279713          	slli	a4,a5,0x2
    8020156c:	00015797          	auipc	a5,0x15
    80201570:	49c78793          	addi	a5,a5,1180 # 80216a08 <user_test_table+0xf8>
    80201574:	97ba                	add	a5,a5,a4
    80201576:	439c                	lw	a5,0(a5)
    80201578:	0007871b          	sext.w	a4,a5
    8020157c:	00015797          	auipc	a5,0x15
    80201580:	48c78793          	addi	a5,a5,1164 # 80216a08 <user_test_table+0xf8>
    80201584:	97ba                	add	a5,a5,a4
    80201586:	8782                	jr	a5
        case 'd':
            if (is_long)
    80201588:	fcc42783          	lw	a5,-52(s0)
    8020158c:	2781                	sext.w	a5,a5
    8020158e:	c79d                	beqz	a5,802015bc <vsnprintf+0x1fc>
                nlen = int_to_str(numbuf, va_arg(ap, long long), 10, 1);
    80201590:	f5043783          	ld	a5,-176(s0)
    80201594:	00878713          	addi	a4,a5,8
    80201598:	f4e43823          	sd	a4,-176(s0)
    8020159c:	639c                	ld	a5,0(a5)
    8020159e:	873e                	mv	a4,a5
    802015a0:	f7040793          	addi	a5,s0,-144
    802015a4:	4685                	li	a3,1
    802015a6:	4629                	li	a2,10
    802015a8:	85ba                	mv	a1,a4
    802015aa:	853e                	mv	a0,a5
    802015ac:	00000097          	auipc	ra,0x0
    802015b0:	d20080e7          	jalr	-736(ra) # 802012cc <int_to_str>
    802015b4:	87aa                	mv	a5,a0
    802015b6:	fcf42423          	sw	a5,-56(s0)
            else
                nlen = int_to_str(numbuf, va_arg(ap, int), 10, 1);
            break;
    802015ba:	aead                	j	80201934 <vsnprintf+0x574>
                nlen = int_to_str(numbuf, va_arg(ap, int), 10, 1);
    802015bc:	f5043783          	ld	a5,-176(s0)
    802015c0:	00878713          	addi	a4,a5,8
    802015c4:	f4e43823          	sd	a4,-176(s0)
    802015c8:	439c                	lw	a5,0(a5)
    802015ca:	873e                	mv	a4,a5
    802015cc:	f7040793          	addi	a5,s0,-144
    802015d0:	4685                	li	a3,1
    802015d2:	4629                	li	a2,10
    802015d4:	85ba                	mv	a1,a4
    802015d6:	853e                	mv	a0,a5
    802015d8:	00000097          	auipc	ra,0x0
    802015dc:	cf4080e7          	jalr	-780(ra) # 802012cc <int_to_str>
    802015e0:	87aa                	mv	a5,a0
    802015e2:	fcf42423          	sw	a5,-56(s0)
            break;
    802015e6:	a6b9                	j	80201934 <vsnprintf+0x574>
        case 'x':
            if (is_long)
    802015e8:	fcc42783          	lw	a5,-52(s0)
    802015ec:	2781                	sext.w	a5,a5
    802015ee:	c79d                	beqz	a5,8020161c <vsnprintf+0x25c>
                nlen = int_to_str(numbuf, va_arg(ap, long long), 16, 0);
    802015f0:	f5043783          	ld	a5,-176(s0)
    802015f4:	00878713          	addi	a4,a5,8
    802015f8:	f4e43823          	sd	a4,-176(s0)
    802015fc:	639c                	ld	a5,0(a5)
    802015fe:	873e                	mv	a4,a5
    80201600:	f7040793          	addi	a5,s0,-144
    80201604:	4681                	li	a3,0
    80201606:	4641                	li	a2,16
    80201608:	85ba                	mv	a1,a4
    8020160a:	853e                	mv	a0,a5
    8020160c:	00000097          	auipc	ra,0x0
    80201610:	cc0080e7          	jalr	-832(ra) # 802012cc <int_to_str>
    80201614:	87aa                	mv	a5,a0
    80201616:	fcf42423          	sw	a5,-56(s0)
            else
                nlen = int_to_str(numbuf, va_arg(ap, int), 16, 0);
            break;
    8020161a:	ae29                	j	80201934 <vsnprintf+0x574>
                nlen = int_to_str(numbuf, va_arg(ap, int), 16, 0);
    8020161c:	f5043783          	ld	a5,-176(s0)
    80201620:	00878713          	addi	a4,a5,8
    80201624:	f4e43823          	sd	a4,-176(s0)
    80201628:	439c                	lw	a5,0(a5)
    8020162a:	873e                	mv	a4,a5
    8020162c:	f7040793          	addi	a5,s0,-144
    80201630:	4681                	li	a3,0
    80201632:	4641                	li	a2,16
    80201634:	85ba                	mv	a1,a4
    80201636:	853e                	mv	a0,a5
    80201638:	00000097          	auipc	ra,0x0
    8020163c:	c94080e7          	jalr	-876(ra) # 802012cc <int_to_str>
    80201640:	87aa                	mv	a5,a0
    80201642:	fcf42423          	sw	a5,-56(s0)
            break;
    80201646:	a4fd                	j	80201934 <vsnprintf+0x574>
        case 'u':
            if (is_long)
    80201648:	fcc42783          	lw	a5,-52(s0)
    8020164c:	2781                	sext.w	a5,a5
    8020164e:	c795                	beqz	a5,8020167a <vsnprintf+0x2ba>
                nlen = int_to_str(numbuf, va_arg(ap, unsigned long long), 10, 0);
    80201650:	f5043783          	ld	a5,-176(s0)
    80201654:	00878713          	addi	a4,a5,8
    80201658:	f4e43823          	sd	a4,-176(s0)
    8020165c:	6398                	ld	a4,0(a5)
    8020165e:	f7040793          	addi	a5,s0,-144
    80201662:	4681                	li	a3,0
    80201664:	4629                	li	a2,10
    80201666:	85ba                	mv	a1,a4
    80201668:	853e                	mv	a0,a5
    8020166a:	00000097          	auipc	ra,0x0
    8020166e:	c62080e7          	jalr	-926(ra) # 802012cc <int_to_str>
    80201672:	87aa                	mv	a5,a0
    80201674:	fcf42423          	sw	a5,-56(s0)
            else
                nlen = int_to_str(numbuf, va_arg(ap, unsigned int), 10, 0);
            break;
    80201678:	ac75                	j	80201934 <vsnprintf+0x574>
                nlen = int_to_str(numbuf, va_arg(ap, unsigned int), 10, 0);
    8020167a:	f5043783          	ld	a5,-176(s0)
    8020167e:	00878713          	addi	a4,a5,8
    80201682:	f4e43823          	sd	a4,-176(s0)
    80201686:	439c                	lw	a5,0(a5)
    80201688:	02079713          	slli	a4,a5,0x20
    8020168c:	9301                	srli	a4,a4,0x20
    8020168e:	f7040793          	addi	a5,s0,-144
    80201692:	4681                	li	a3,0
    80201694:	4629                	li	a2,10
    80201696:	85ba                	mv	a1,a4
    80201698:	853e                	mv	a0,a5
    8020169a:	00000097          	auipc	ra,0x0
    8020169e:	c32080e7          	jalr	-974(ra) # 802012cc <int_to_str>
    802016a2:	87aa                	mv	a5,a0
    802016a4:	fcf42423          	sw	a5,-56(s0)
            break;
    802016a8:	a471                	j	80201934 <vsnprintf+0x574>
        case 'o':
            if (is_long)
    802016aa:	fcc42783          	lw	a5,-52(s0)
    802016ae:	2781                	sext.w	a5,a5
    802016b0:	c79d                	beqz	a5,802016de <vsnprintf+0x31e>
                nlen = int_to_str(numbuf, va_arg(ap, long long), 8, 0);
    802016b2:	f5043783          	ld	a5,-176(s0)
    802016b6:	00878713          	addi	a4,a5,8
    802016ba:	f4e43823          	sd	a4,-176(s0)
    802016be:	639c                	ld	a5,0(a5)
    802016c0:	873e                	mv	a4,a5
    802016c2:	f7040793          	addi	a5,s0,-144
    802016c6:	4681                	li	a3,0
    802016c8:	4621                	li	a2,8
    802016ca:	85ba                	mv	a1,a4
    802016cc:	853e                	mv	a0,a5
    802016ce:	00000097          	auipc	ra,0x0
    802016d2:	bfe080e7          	jalr	-1026(ra) # 802012cc <int_to_str>
    802016d6:	87aa                	mv	a5,a0
    802016d8:	fcf42423          	sw	a5,-56(s0)
            else
                nlen = int_to_str(numbuf, va_arg(ap, int), 8, 0);
            break;
    802016dc:	aca1                	j	80201934 <vsnprintf+0x574>
                nlen = int_to_str(numbuf, va_arg(ap, int), 8, 0);
    802016de:	f5043783          	ld	a5,-176(s0)
    802016e2:	00878713          	addi	a4,a5,8
    802016e6:	f4e43823          	sd	a4,-176(s0)
    802016ea:	439c                	lw	a5,0(a5)
    802016ec:	873e                	mv	a4,a5
    802016ee:	f7040793          	addi	a5,s0,-144
    802016f2:	4681                	li	a3,0
    802016f4:	4621                	li	a2,8
    802016f6:	85ba                	mv	a1,a4
    802016f8:	853e                	mv	a0,a5
    802016fa:	00000097          	auipc	ra,0x0
    802016fe:	bd2080e7          	jalr	-1070(ra) # 802012cc <int_to_str>
    80201702:	87aa                	mv	a5,a0
    80201704:	fcf42423          	sw	a5,-56(s0)
            break;
    80201708:	a435                	j	80201934 <vsnprintf+0x574>
        case 'b':
            if (is_long)
    8020170a:	fcc42783          	lw	a5,-52(s0)
    8020170e:	2781                	sext.w	a5,a5
    80201710:	c79d                	beqz	a5,8020173e <vsnprintf+0x37e>
                nlen = int_to_str(numbuf, va_arg(ap, long long), 2, 0);
    80201712:	f5043783          	ld	a5,-176(s0)
    80201716:	00878713          	addi	a4,a5,8
    8020171a:	f4e43823          	sd	a4,-176(s0)
    8020171e:	639c                	ld	a5,0(a5)
    80201720:	873e                	mv	a4,a5
    80201722:	f7040793          	addi	a5,s0,-144
    80201726:	4681                	li	a3,0
    80201728:	4609                	li	a2,2
    8020172a:	85ba                	mv	a1,a4
    8020172c:	853e                	mv	a0,a5
    8020172e:	00000097          	auipc	ra,0x0
    80201732:	b9e080e7          	jalr	-1122(ra) # 802012cc <int_to_str>
    80201736:	87aa                	mv	a5,a0
    80201738:	fcf42423          	sw	a5,-56(s0)
            else
                nlen = int_to_str(numbuf, va_arg(ap, int), 2, 0);
            break;
    8020173c:	aae5                	j	80201934 <vsnprintf+0x574>
                nlen = int_to_str(numbuf, va_arg(ap, int), 2, 0);
    8020173e:	f5043783          	ld	a5,-176(s0)
    80201742:	00878713          	addi	a4,a5,8
    80201746:	f4e43823          	sd	a4,-176(s0)
    8020174a:	439c                	lw	a5,0(a5)
    8020174c:	873e                	mv	a4,a5
    8020174e:	f7040793          	addi	a5,s0,-144
    80201752:	4681                	li	a3,0
    80201754:	4609                	li	a2,2
    80201756:	85ba                	mv	a1,a4
    80201758:	853e                	mv	a0,a5
    8020175a:	00000097          	auipc	ra,0x0
    8020175e:	b72080e7          	jalr	-1166(ra) # 802012cc <int_to_str>
    80201762:	87aa                	mv	a5,a0
    80201764:	fcf42423          	sw	a5,-56(s0)
            break;
    80201768:	a2f1                	j	80201934 <vsnprintf+0x574>
        case 'c':
            numbuf[0] = va_arg(ap, int);
    8020176a:	f5043783          	ld	a5,-176(s0)
    8020176e:	00878713          	addi	a4,a5,8
    80201772:	f4e43823          	sd	a4,-176(s0)
    80201776:	439c                	lw	a5,0(a5)
    80201778:	0ff7f793          	zext.b	a5,a5
    8020177c:	f6f40823          	sb	a5,-144(s0)
            nlen = 1;
    80201780:	4785                	li	a5,1
    80201782:	fcf42423          	sw	a5,-56(s0)
            break;
    80201786:	a27d                	j	80201934 <vsnprintf+0x574>
        case 's':
            s = va_arg(ap, char*);
    80201788:	f5043783          	ld	a5,-176(s0)
    8020178c:	00878713          	addi	a4,a5,8
    80201790:	f4e43823          	sd	a4,-176(s0)
    80201794:	639c                	ld	a5,0(a5)
    80201796:	fcf43c23          	sd	a5,-40(s0)
            if (!s) s = "(null)";
    8020179a:	fd843783          	ld	a5,-40(s0)
    8020179e:	e799                	bnez	a5,802017ac <vsnprintf+0x3ec>
    802017a0:	00015797          	auipc	a5,0x15
    802017a4:	1e878793          	addi	a5,a5,488 # 80216988 <user_test_table+0x78>
    802017a8:	fcf43c23          	sd	a5,-40(s0)
            nlen = 0;
    802017ac:	fc042423          	sw	zero,-56(s0)
            while (s[nlen] && pos + nlen + 1 < size)
    802017b0:	a03d                	j	802017de <vsnprintf+0x41e>
                buf[pos + nlen] = s[nlen], nlen++;
    802017b2:	fc842783          	lw	a5,-56(s0)
    802017b6:	fd843703          	ld	a4,-40(s0)
    802017ba:	973e                	add	a4,a4,a5
    802017bc:	fc842683          	lw	a3,-56(s0)
    802017c0:	fe843783          	ld	a5,-24(s0)
    802017c4:	97b6                	add	a5,a5,a3
    802017c6:	f6843683          	ld	a3,-152(s0)
    802017ca:	97b6                	add	a5,a5,a3
    802017cc:	00074703          	lbu	a4,0(a4)
    802017d0:	00e78023          	sb	a4,0(a5)
    802017d4:	fc842783          	lw	a5,-56(s0)
    802017d8:	2785                	addiw	a5,a5,1
    802017da:	fcf42423          	sw	a5,-56(s0)
            while (s[nlen] && pos + nlen + 1 < size)
    802017de:	fc842783          	lw	a5,-56(s0)
    802017e2:	fd843703          	ld	a4,-40(s0)
    802017e6:	97ba                	add	a5,a5,a4
    802017e8:	0007c783          	lbu	a5,0(a5)
    802017ec:	cb99                	beqz	a5,80201802 <vsnprintf+0x442>
    802017ee:	fc842703          	lw	a4,-56(s0)
    802017f2:	fe843783          	ld	a5,-24(s0)
    802017f6:	97ba                	add	a5,a5,a4
    802017f8:	0785                	addi	a5,a5,1
    802017fa:	f6043703          	ld	a4,-160(s0)
    802017fe:	fae7eae3          	bltu	a5,a4,802017b2 <vsnprintf+0x3f2>
            pos += nlen;
    80201802:	fc842783          	lw	a5,-56(s0)
    80201806:	fe843703          	ld	a4,-24(s0)
    8020180a:	97ba                	add	a5,a5,a4
    8020180c:	fef43423          	sd	a5,-24(s0)
            continue;
    80201810:	aad1                	j	802019e4 <vsnprintf+0x624>
        case 'p': {
            unsigned long ptr = (unsigned long)va_arg(ap, void*);
    80201812:	f5043783          	ld	a5,-176(s0)
    80201816:	00878713          	addi	a4,a5,8
    8020181a:	f4e43823          	sd	a4,-176(s0)
    8020181e:	639c                	ld	a5,0(a5)
    80201820:	faf43423          	sd	a5,-88(s0)
            char pbuf[18] = "0x";
    80201824:	67a1                	lui	a5,0x8
    80201826:	83078793          	addi	a5,a5,-2000 # 7830 <_entry-0x801f87d0>
    8020182a:	f8f43823          	sd	a5,-112(s0)
    8020182e:	f8043c23          	sd	zero,-104(s0)
    80201832:	fa041023          	sh	zero,-96(s0)
            int pi = 2;
    80201836:	4789                	li	a5,2
    80201838:	fcf42223          	sw	a5,-60(s0)
            for (int j = 0; j < 16; j++) {
    8020183c:	fc042023          	sw	zero,-64(s0)
    80201840:	a889                	j	80201892 <vsnprintf+0x4d2>
                int shift = (15 - j) * 4;
    80201842:	47bd                	li	a5,15
    80201844:	fc042703          	lw	a4,-64(s0)
    80201848:	9f99                	subw	a5,a5,a4
    8020184a:	2781                	sext.w	a5,a5
    8020184c:	0027979b          	slliw	a5,a5,0x2
    80201850:	faf42223          	sw	a5,-92(s0)
                pbuf[pi++] = "0123456789abcdef"[(ptr >> shift) & 0xf];
    80201854:	fa442783          	lw	a5,-92(s0)
    80201858:	873e                	mv	a4,a5
    8020185a:	fa843783          	ld	a5,-88(s0)
    8020185e:	00e7d7b3          	srl	a5,a5,a4
    80201862:	00f7f713          	andi	a4,a5,15
    80201866:	fc442783          	lw	a5,-60(s0)
    8020186a:	0017869b          	addiw	a3,a5,1
    8020186e:	fcd42223          	sw	a3,-60(s0)
    80201872:	00015697          	auipc	a3,0x15
    80201876:	12668693          	addi	a3,a3,294 # 80216998 <user_test_table+0x88>
    8020187a:	9736                	add	a4,a4,a3
    8020187c:	00074703          	lbu	a4,0(a4)
    80201880:	17c1                	addi	a5,a5,-16
    80201882:	97a2                	add	a5,a5,s0
    80201884:	fae78023          	sb	a4,-96(a5)
            for (int j = 0; j < 16; j++) {
    80201888:	fc042783          	lw	a5,-64(s0)
    8020188c:	2785                	addiw	a5,a5,1
    8020188e:	fcf42023          	sw	a5,-64(s0)
    80201892:	fc042783          	lw	a5,-64(s0)
    80201896:	0007871b          	sext.w	a4,a5
    8020189a:	47bd                	li	a5,15
    8020189c:	fae7d3e3          	bge	a5,a4,80201842 <vsnprintf+0x482>
            }
            pbuf[pi] = '\0';
    802018a0:	fc442783          	lw	a5,-60(s0)
    802018a4:	17c1                	addi	a5,a5,-16
    802018a6:	97a2                	add	a5,a5,s0
    802018a8:	fa078023          	sb	zero,-96(a5)
            nlen = pi;
    802018ac:	fc442783          	lw	a5,-60(s0)
    802018b0:	fcf42423          	sw	a5,-56(s0)
            for (int j = 0; j < nlen && pos + 1 < size; j++)
    802018b4:	fa042e23          	sw	zero,-68(s0)
    802018b8:	a03d                	j	802018e6 <vsnprintf+0x526>
                buf[pos++] = pbuf[j];
    802018ba:	fe843783          	ld	a5,-24(s0)
    802018be:	00178713          	addi	a4,a5,1
    802018c2:	fee43423          	sd	a4,-24(s0)
    802018c6:	f6843703          	ld	a4,-152(s0)
    802018ca:	97ba                	add	a5,a5,a4
    802018cc:	fbc42703          	lw	a4,-68(s0)
    802018d0:	1741                	addi	a4,a4,-16
    802018d2:	9722                	add	a4,a4,s0
    802018d4:	fa074703          	lbu	a4,-96(a4)
    802018d8:	00e78023          	sb	a4,0(a5)
            for (int j = 0; j < nlen && pos + 1 < size; j++)
    802018dc:	fbc42783          	lw	a5,-68(s0)
    802018e0:	2785                	addiw	a5,a5,1
    802018e2:	faf42e23          	sw	a5,-68(s0)
    802018e6:	fbc42783          	lw	a5,-68(s0)
    802018ea:	873e                	mv	a4,a5
    802018ec:	fc842783          	lw	a5,-56(s0)
    802018f0:	2701                	sext.w	a4,a4
    802018f2:	2781                	sext.w	a5,a5
    802018f4:	0ef75763          	bge	a4,a5,802019e2 <vsnprintf+0x622>
    802018f8:	fe843783          	ld	a5,-24(s0)
    802018fc:	0785                	addi	a5,a5,1
    802018fe:	f6043703          	ld	a4,-160(s0)
    80201902:	fae7ece3          	bltu	a5,a4,802018ba <vsnprintf+0x4fa>
            continue;
    80201906:	a8f1                	j	802019e2 <vsnprintf+0x622>
        }
        case '%':
            numbuf[0] = '%';
    80201908:	02500793          	li	a5,37
    8020190c:	f6f40823          	sb	a5,-144(s0)
            nlen = 1;
    80201910:	4785                	li	a5,1
    80201912:	fcf42423          	sw	a5,-56(s0)
            break;
    80201916:	a839                	j	80201934 <vsnprintf+0x574>
        default:
            numbuf[0] = '%';
    80201918:	02500793          	li	a5,37
    8020191c:	f6f40823          	sb	a5,-144(s0)
            numbuf[1] = c;
    80201920:	fe042783          	lw	a5,-32(s0)
    80201924:	0ff7f793          	zext.b	a5,a5
    80201928:	f6f408a3          	sb	a5,-143(s0)
            nlen = 2;
    8020192c:	4789                	li	a5,2
    8020192e:	fcf42423          	sw	a5,-56(s0)
            break;
    80201932:	0001                	nop
        }
        // 宽度和填充
        int pad = width - nlen;
    80201934:	fd042783          	lw	a5,-48(s0)
    80201938:	873e                	mv	a4,a5
    8020193a:	fc842783          	lw	a5,-56(s0)
    8020193e:	40f707bb          	subw	a5,a4,a5
    80201942:	faf42c23          	sw	a5,-72(s0)
        while (pad-- > 0 && pos + 1 < size)
    80201946:	a02d                	j	80201970 <vsnprintf+0x5b0>
            buf[pos++] = padzero ? '0' : ' ';
    80201948:	fd442783          	lw	a5,-44(s0)
    8020194c:	2781                	sext.w	a5,a5
    8020194e:	c781                	beqz	a5,80201956 <vsnprintf+0x596>
    80201950:	03000793          	li	a5,48
    80201954:	a019                	j	8020195a <vsnprintf+0x59a>
    80201956:	02000793          	li	a5,32
    8020195a:	fe843703          	ld	a4,-24(s0)
    8020195e:	00170693          	addi	a3,a4,1
    80201962:	fed43423          	sd	a3,-24(s0)
    80201966:	f6843683          	ld	a3,-152(s0)
    8020196a:	9736                	add	a4,a4,a3
    8020196c:	00f70023          	sb	a5,0(a4)
        while (pad-- > 0 && pos + 1 < size)
    80201970:	fb842783          	lw	a5,-72(s0)
    80201974:	fff7871b          	addiw	a4,a5,-1
    80201978:	fae42c23          	sw	a4,-72(s0)
    8020197c:	00f05963          	blez	a5,8020198e <vsnprintf+0x5ce>
    80201980:	fe843783          	ld	a5,-24(s0)
    80201984:	0785                	addi	a5,a5,1
    80201986:	f6043703          	ld	a4,-160(s0)
    8020198a:	fae7efe3          	bltu	a5,a4,80201948 <vsnprintf+0x588>
        for (int j = 0; j < nlen && pos + 1 < size; j++)
    8020198e:	fa042a23          	sw	zero,-76(s0)
    80201992:	a03d                	j	802019c0 <vsnprintf+0x600>
            buf[pos++] = numbuf[j];
    80201994:	fe843783          	ld	a5,-24(s0)
    80201998:	00178713          	addi	a4,a5,1
    8020199c:	fee43423          	sd	a4,-24(s0)
    802019a0:	f6843703          	ld	a4,-152(s0)
    802019a4:	97ba                	add	a5,a5,a4
    802019a6:	fb442703          	lw	a4,-76(s0)
    802019aa:	1741                	addi	a4,a4,-16
    802019ac:	9722                	add	a4,a4,s0
    802019ae:	f8074703          	lbu	a4,-128(a4)
    802019b2:	00e78023          	sb	a4,0(a5)
        for (int j = 0; j < nlen && pos + 1 < size; j++)
    802019b6:	fb442783          	lw	a5,-76(s0)
    802019ba:	2785                	addiw	a5,a5,1
    802019bc:	faf42a23          	sw	a5,-76(s0)
    802019c0:	fb442783          	lw	a5,-76(s0)
    802019c4:	873e                	mv	a4,a5
    802019c6:	fc842783          	lw	a5,-56(s0)
    802019ca:	2701                	sext.w	a4,a4
    802019cc:	2781                	sext.w	a5,a5
    802019ce:	00f75b63          	bge	a4,a5,802019e4 <vsnprintf+0x624>
    802019d2:	fe843783          	ld	a5,-24(s0)
    802019d6:	0785                	addi	a5,a5,1
    802019d8:	f6043703          	ld	a4,-160(s0)
    802019dc:	fae7ece3          	bltu	a5,a4,80201994 <vsnprintf+0x5d4>
    802019e0:	a011                	j	802019e4 <vsnprintf+0x624>
            continue;
    802019e2:	0001                	nop
    for (i = 0; (c = fmt[i] & 0xff) != 0 && pos + 1 < size; i++) {
    802019e4:	fe442783          	lw	a5,-28(s0)
    802019e8:	2785                	addiw	a5,a5,1
    802019ea:	fef42223          	sw	a5,-28(s0)
    802019ee:	fe442783          	lw	a5,-28(s0)
    802019f2:	f5843703          	ld	a4,-168(s0)
    802019f6:	97ba                	add	a5,a5,a4
    802019f8:	0007c783          	lbu	a5,0(a5)
    802019fc:	fef42023          	sw	a5,-32(s0)
    80201a00:	fe042783          	lw	a5,-32(s0)
    80201a04:	2781                	sext.w	a5,a5
    80201a06:	cb91                	beqz	a5,80201a1a <vsnprintf+0x65a>
    80201a08:	fe843783          	ld	a5,-24(s0)
    80201a0c:	0785                	addi	a5,a5,1
    80201a0e:	f6043703          	ld	a4,-160(s0)
    80201a12:	9ce7e8e3          	bltu	a5,a4,802013e2 <vsnprintf+0x22>
    80201a16:	a011                	j	80201a1a <vsnprintf+0x65a>
            if (c == 0) break;
    80201a18:	0001                	nop
    }
    buf[pos] = '\0';
    80201a1a:	f6843703          	ld	a4,-152(s0)
    80201a1e:	fe843783          	ld	a5,-24(s0)
    80201a22:	97ba                	add	a5,a5,a4
    80201a24:	00078023          	sb	zero,0(a5)
    return pos;
    80201a28:	fe843783          	ld	a5,-24(s0)
    80201a2c:	2781                	sext.w	a5,a5
}
    80201a2e:	853e                	mv	a0,a5
    80201a30:	70aa                	ld	ra,168(sp)
    80201a32:	740a                	ld	s0,160(sp)
    80201a34:	614d                	addi	sp,sp,176
    80201a36:	8082                	ret

0000000080201a38 <snprintf>:

int snprintf(char *buf, size_t size, const char *fmt, ...) {
    80201a38:	7159                	addi	sp,sp,-112
    80201a3a:	fc06                	sd	ra,56(sp)
    80201a3c:	f822                	sd	s0,48(sp)
    80201a3e:	0080                	addi	s0,sp,64
    80201a40:	fca43c23          	sd	a0,-40(s0)
    80201a44:	fcb43823          	sd	a1,-48(s0)
    80201a48:	fcc43423          	sd	a2,-56(s0)
    80201a4c:	e414                	sd	a3,8(s0)
    80201a4e:	e818                	sd	a4,16(s0)
    80201a50:	ec1c                	sd	a5,24(s0)
    80201a52:	03043023          	sd	a6,32(s0)
    80201a56:	03143423          	sd	a7,40(s0)
    va_list ap;
    va_start(ap, fmt);
    80201a5a:	03040793          	addi	a5,s0,48
    80201a5e:	fcf43023          	sd	a5,-64(s0)
    80201a62:	fc043783          	ld	a5,-64(s0)
    80201a66:	fd878793          	addi	a5,a5,-40
    80201a6a:	fef43023          	sd	a5,-32(s0)
    int ret = vsnprintf(buf, size, fmt, ap);
    80201a6e:	fe043783          	ld	a5,-32(s0)
    80201a72:	86be                	mv	a3,a5
    80201a74:	fc843603          	ld	a2,-56(s0)
    80201a78:	fd043583          	ld	a1,-48(s0)
    80201a7c:	fd843503          	ld	a0,-40(s0)
    80201a80:	00000097          	auipc	ra,0x0
    80201a84:	940080e7          	jalr	-1728(ra) # 802013c0 <vsnprintf>
    80201a88:	87aa                	mv	a5,a0
    80201a8a:	fef42623          	sw	a5,-20(s0)
    va_end(ap);
    return ret;
    80201a8e:	fec42783          	lw	a5,-20(s0)
}
    80201a92:	853e                	mv	a0,a5
    80201a94:	70e2                	ld	ra,56(sp)
    80201a96:	7442                	ld	s0,48(sp)
    80201a98:	6165                	addi	sp,sp,112
    80201a9a:	8082                	ret

0000000080201a9c <clear_screen>:
// 清屏功能
void clear_screen(void) {
    80201a9c:	1141                	addi	sp,sp,-16
    80201a9e:	e406                	sd	ra,8(sp)
    80201aa0:	e022                	sd	s0,0(sp)
    80201aa2:	0800                	addi	s0,sp,16
    uart_puts(CLEAR_SCREEN);
    80201aa4:	00015517          	auipc	a0,0x15
    80201aa8:	fc450513          	addi	a0,a0,-60 # 80216a68 <user_test_table+0x158>
    80201aac:	fffff097          	auipc	ra,0xfffff
    80201ab0:	c54080e7          	jalr	-940(ra) # 80200700 <uart_puts>
	uart_puts(CURSOR_HOME);
    80201ab4:	00015517          	auipc	a0,0x15
    80201ab8:	fbc50513          	addi	a0,a0,-68 # 80216a70 <user_test_table+0x160>
    80201abc:	fffff097          	auipc	ra,0xfffff
    80201ac0:	c44080e7          	jalr	-956(ra) # 80200700 <uart_puts>
}
    80201ac4:	0001                	nop
    80201ac6:	60a2                	ld	ra,8(sp)
    80201ac8:	6402                	ld	s0,0(sp)
    80201aca:	0141                	addi	sp,sp,16
    80201acc:	8082                	ret

0000000080201ace <cursor_up>:

// 光标上移
void cursor_up(int lines) {
    80201ace:	1101                	addi	sp,sp,-32
    80201ad0:	ec06                	sd	ra,24(sp)
    80201ad2:	e822                	sd	s0,16(sp)
    80201ad4:	1000                	addi	s0,sp,32
    80201ad6:	87aa                	mv	a5,a0
    80201ad8:	fef42623          	sw	a5,-20(s0)
    if (lines <= 0) return;
    80201adc:	fec42783          	lw	a5,-20(s0)
    80201ae0:	2781                	sext.w	a5,a5
    80201ae2:	02f05f63          	blez	a5,80201b20 <cursor_up+0x52>
    consputc('\033');
    80201ae6:	456d                	li	a0,27
    80201ae8:	fffff097          	auipc	ra,0xfffff
    80201aec:	112080e7          	jalr	274(ra) # 80200bfa <consputc>
    consputc('[');
    80201af0:	05b00513          	li	a0,91
    80201af4:	fffff097          	auipc	ra,0xfffff
    80201af8:	106080e7          	jalr	262(ra) # 80200bfa <consputc>
    printint(lines, 10, 0, 0,0);
    80201afc:	fec42783          	lw	a5,-20(s0)
    80201b00:	4701                	li	a4,0
    80201b02:	4681                	li	a3,0
    80201b04:	4601                	li	a2,0
    80201b06:	45a9                	li	a1,10
    80201b08:	853e                	mv	a0,a5
    80201b0a:	fffff097          	auipc	ra,0xfffff
    80201b0e:	144080e7          	jalr	324(ra) # 80200c4e <printint>
    consputc('A');
    80201b12:	04100513          	li	a0,65
    80201b16:	fffff097          	auipc	ra,0xfffff
    80201b1a:	0e4080e7          	jalr	228(ra) # 80200bfa <consputc>
    80201b1e:	a011                	j	80201b22 <cursor_up+0x54>
    if (lines <= 0) return;
    80201b20:	0001                	nop
}
    80201b22:	60e2                	ld	ra,24(sp)
    80201b24:	6442                	ld	s0,16(sp)
    80201b26:	6105                	addi	sp,sp,32
    80201b28:	8082                	ret

0000000080201b2a <cursor_down>:

// 光标下移
void cursor_down(int lines) {
    80201b2a:	1101                	addi	sp,sp,-32
    80201b2c:	ec06                	sd	ra,24(sp)
    80201b2e:	e822                	sd	s0,16(sp)
    80201b30:	1000                	addi	s0,sp,32
    80201b32:	87aa                	mv	a5,a0
    80201b34:	fef42623          	sw	a5,-20(s0)
    if (lines <= 0) return;
    80201b38:	fec42783          	lw	a5,-20(s0)
    80201b3c:	2781                	sext.w	a5,a5
    80201b3e:	02f05f63          	blez	a5,80201b7c <cursor_down+0x52>
    consputc('\033');
    80201b42:	456d                	li	a0,27
    80201b44:	fffff097          	auipc	ra,0xfffff
    80201b48:	0b6080e7          	jalr	182(ra) # 80200bfa <consputc>
    consputc('[');
    80201b4c:	05b00513          	li	a0,91
    80201b50:	fffff097          	auipc	ra,0xfffff
    80201b54:	0aa080e7          	jalr	170(ra) # 80200bfa <consputc>
    printint(lines, 10, 0, 0,0);
    80201b58:	fec42783          	lw	a5,-20(s0)
    80201b5c:	4701                	li	a4,0
    80201b5e:	4681                	li	a3,0
    80201b60:	4601                	li	a2,0
    80201b62:	45a9                	li	a1,10
    80201b64:	853e                	mv	a0,a5
    80201b66:	fffff097          	auipc	ra,0xfffff
    80201b6a:	0e8080e7          	jalr	232(ra) # 80200c4e <printint>
    consputc('B');
    80201b6e:	04200513          	li	a0,66
    80201b72:	fffff097          	auipc	ra,0xfffff
    80201b76:	088080e7          	jalr	136(ra) # 80200bfa <consputc>
    80201b7a:	a011                	j	80201b7e <cursor_down+0x54>
    if (lines <= 0) return;
    80201b7c:	0001                	nop
}
    80201b7e:	60e2                	ld	ra,24(sp)
    80201b80:	6442                	ld	s0,16(sp)
    80201b82:	6105                	addi	sp,sp,32
    80201b84:	8082                	ret

0000000080201b86 <cursor_right>:

// 光标右移
void cursor_right(int cols) {
    80201b86:	1101                	addi	sp,sp,-32
    80201b88:	ec06                	sd	ra,24(sp)
    80201b8a:	e822                	sd	s0,16(sp)
    80201b8c:	1000                	addi	s0,sp,32
    80201b8e:	87aa                	mv	a5,a0
    80201b90:	fef42623          	sw	a5,-20(s0)
    if (cols <= 0) return;
    80201b94:	fec42783          	lw	a5,-20(s0)
    80201b98:	2781                	sext.w	a5,a5
    80201b9a:	02f05f63          	blez	a5,80201bd8 <cursor_right+0x52>
    consputc('\033');
    80201b9e:	456d                	li	a0,27
    80201ba0:	fffff097          	auipc	ra,0xfffff
    80201ba4:	05a080e7          	jalr	90(ra) # 80200bfa <consputc>
    consputc('[');
    80201ba8:	05b00513          	li	a0,91
    80201bac:	fffff097          	auipc	ra,0xfffff
    80201bb0:	04e080e7          	jalr	78(ra) # 80200bfa <consputc>
    printint(cols, 10, 0,0,0);
    80201bb4:	fec42783          	lw	a5,-20(s0)
    80201bb8:	4701                	li	a4,0
    80201bba:	4681                	li	a3,0
    80201bbc:	4601                	li	a2,0
    80201bbe:	45a9                	li	a1,10
    80201bc0:	853e                	mv	a0,a5
    80201bc2:	fffff097          	auipc	ra,0xfffff
    80201bc6:	08c080e7          	jalr	140(ra) # 80200c4e <printint>
    consputc('C');
    80201bca:	04300513          	li	a0,67
    80201bce:	fffff097          	auipc	ra,0xfffff
    80201bd2:	02c080e7          	jalr	44(ra) # 80200bfa <consputc>
    80201bd6:	a011                	j	80201bda <cursor_right+0x54>
    if (cols <= 0) return;
    80201bd8:	0001                	nop
}
    80201bda:	60e2                	ld	ra,24(sp)
    80201bdc:	6442                	ld	s0,16(sp)
    80201bde:	6105                	addi	sp,sp,32
    80201be0:	8082                	ret

0000000080201be2 <cursor_left>:

// 光标左移
void cursor_left(int cols) {
    80201be2:	1101                	addi	sp,sp,-32
    80201be4:	ec06                	sd	ra,24(sp)
    80201be6:	e822                	sd	s0,16(sp)
    80201be8:	1000                	addi	s0,sp,32
    80201bea:	87aa                	mv	a5,a0
    80201bec:	fef42623          	sw	a5,-20(s0)
    if (cols <= 0) return;
    80201bf0:	fec42783          	lw	a5,-20(s0)
    80201bf4:	2781                	sext.w	a5,a5
    80201bf6:	02f05f63          	blez	a5,80201c34 <cursor_left+0x52>
    consputc('\033');
    80201bfa:	456d                	li	a0,27
    80201bfc:	fffff097          	auipc	ra,0xfffff
    80201c00:	ffe080e7          	jalr	-2(ra) # 80200bfa <consputc>
    consputc('[');
    80201c04:	05b00513          	li	a0,91
    80201c08:	fffff097          	auipc	ra,0xfffff
    80201c0c:	ff2080e7          	jalr	-14(ra) # 80200bfa <consputc>
    printint(cols, 10, 0,0,0);
    80201c10:	fec42783          	lw	a5,-20(s0)
    80201c14:	4701                	li	a4,0
    80201c16:	4681                	li	a3,0
    80201c18:	4601                	li	a2,0
    80201c1a:	45a9                	li	a1,10
    80201c1c:	853e                	mv	a0,a5
    80201c1e:	fffff097          	auipc	ra,0xfffff
    80201c22:	030080e7          	jalr	48(ra) # 80200c4e <printint>
    consputc('D');
    80201c26:	04400513          	li	a0,68
    80201c2a:	fffff097          	auipc	ra,0xfffff
    80201c2e:	fd0080e7          	jalr	-48(ra) # 80200bfa <consputc>
    80201c32:	a011                	j	80201c36 <cursor_left+0x54>
    if (cols <= 0) return;
    80201c34:	0001                	nop
}
    80201c36:	60e2                	ld	ra,24(sp)
    80201c38:	6442                	ld	s0,16(sp)
    80201c3a:	6105                	addi	sp,sp,32
    80201c3c:	8082                	ret

0000000080201c3e <save_cursor>:
// 保存光标位置
void save_cursor(void) {
    80201c3e:	1141                	addi	sp,sp,-16
    80201c40:	e406                	sd	ra,8(sp)
    80201c42:	e022                	sd	s0,0(sp)
    80201c44:	0800                	addi	s0,sp,16
    consputc('\033');
    80201c46:	456d                	li	a0,27
    80201c48:	fffff097          	auipc	ra,0xfffff
    80201c4c:	fb2080e7          	jalr	-78(ra) # 80200bfa <consputc>
    consputc('[');
    80201c50:	05b00513          	li	a0,91
    80201c54:	fffff097          	auipc	ra,0xfffff
    80201c58:	fa6080e7          	jalr	-90(ra) # 80200bfa <consputc>
    consputc('s');
    80201c5c:	07300513          	li	a0,115
    80201c60:	fffff097          	auipc	ra,0xfffff
    80201c64:	f9a080e7          	jalr	-102(ra) # 80200bfa <consputc>
}
    80201c68:	0001                	nop
    80201c6a:	60a2                	ld	ra,8(sp)
    80201c6c:	6402                	ld	s0,0(sp)
    80201c6e:	0141                	addi	sp,sp,16
    80201c70:	8082                	ret

0000000080201c72 <restore_cursor>:

// 恢复光标位置
void restore_cursor(void) {
    80201c72:	1141                	addi	sp,sp,-16
    80201c74:	e406                	sd	ra,8(sp)
    80201c76:	e022                	sd	s0,0(sp)
    80201c78:	0800                	addi	s0,sp,16
    consputc('\033');
    80201c7a:	456d                	li	a0,27
    80201c7c:	fffff097          	auipc	ra,0xfffff
    80201c80:	f7e080e7          	jalr	-130(ra) # 80200bfa <consputc>
    consputc('[');
    80201c84:	05b00513          	li	a0,91
    80201c88:	fffff097          	auipc	ra,0xfffff
    80201c8c:	f72080e7          	jalr	-142(ra) # 80200bfa <consputc>
    consputc('u');
    80201c90:	07500513          	li	a0,117
    80201c94:	fffff097          	auipc	ra,0xfffff
    80201c98:	f66080e7          	jalr	-154(ra) # 80200bfa <consputc>
}
    80201c9c:	0001                	nop
    80201c9e:	60a2                	ld	ra,8(sp)
    80201ca0:	6402                	ld	s0,0(sp)
    80201ca2:	0141                	addi	sp,sp,16
    80201ca4:	8082                	ret

0000000080201ca6 <goto_rc>:

// 光标定位到指定行列
void goto_rc(int row, int col) {
    80201ca6:	1101                	addi	sp,sp,-32
    80201ca8:	ec06                	sd	ra,24(sp)
    80201caa:	e822                	sd	s0,16(sp)
    80201cac:	1000                	addi	s0,sp,32
    80201cae:	87aa                	mv	a5,a0
    80201cb0:	872e                	mv	a4,a1
    80201cb2:	fef42623          	sw	a5,-20(s0)
    80201cb6:	87ba                	mv	a5,a4
    80201cb8:	fef42423          	sw	a5,-24(s0)
    consputc('\033');
    80201cbc:	456d                	li	a0,27
    80201cbe:	fffff097          	auipc	ra,0xfffff
    80201cc2:	f3c080e7          	jalr	-196(ra) # 80200bfa <consputc>
    consputc('[');
    80201cc6:	05b00513          	li	a0,91
    80201cca:	fffff097          	auipc	ra,0xfffff
    80201cce:	f30080e7          	jalr	-208(ra) # 80200bfa <consputc>
    printint(row, 10, 0,0,0);
    80201cd2:	fec42783          	lw	a5,-20(s0)
    80201cd6:	4701                	li	a4,0
    80201cd8:	4681                	li	a3,0
    80201cda:	4601                	li	a2,0
    80201cdc:	45a9                	li	a1,10
    80201cde:	853e                	mv	a0,a5
    80201ce0:	fffff097          	auipc	ra,0xfffff
    80201ce4:	f6e080e7          	jalr	-146(ra) # 80200c4e <printint>
    consputc(';');
    80201ce8:	03b00513          	li	a0,59
    80201cec:	fffff097          	auipc	ra,0xfffff
    80201cf0:	f0e080e7          	jalr	-242(ra) # 80200bfa <consputc>
    printint(col, 10, 0,0,0);
    80201cf4:	fe842783          	lw	a5,-24(s0)
    80201cf8:	4701                	li	a4,0
    80201cfa:	4681                	li	a3,0
    80201cfc:	4601                	li	a2,0
    80201cfe:	45a9                	li	a1,10
    80201d00:	853e                	mv	a0,a5
    80201d02:	fffff097          	auipc	ra,0xfffff
    80201d06:	f4c080e7          	jalr	-180(ra) # 80200c4e <printint>
    consputc('H');
    80201d0a:	04800513          	li	a0,72
    80201d0e:	fffff097          	auipc	ra,0xfffff
    80201d12:	eec080e7          	jalr	-276(ra) # 80200bfa <consputc>
}
    80201d16:	0001                	nop
    80201d18:	60e2                	ld	ra,24(sp)
    80201d1a:	6442                	ld	s0,16(sp)
    80201d1c:	6105                	addi	sp,sp,32
    80201d1e:	8082                	ret

0000000080201d20 <reset_color>:
// 颜色控制
void reset_color(void) {
    80201d20:	1141                	addi	sp,sp,-16
    80201d22:	e406                	sd	ra,8(sp)
    80201d24:	e022                	sd	s0,0(sp)
    80201d26:	0800                	addi	s0,sp,16
	uart_puts(ESC "[0m");
    80201d28:	00015517          	auipc	a0,0x15
    80201d2c:	d5050513          	addi	a0,a0,-688 # 80216a78 <user_test_table+0x168>
    80201d30:	fffff097          	auipc	ra,0xfffff
    80201d34:	9d0080e7          	jalr	-1584(ra) # 80200700 <uart_puts>
}
    80201d38:	0001                	nop
    80201d3a:	60a2                	ld	ra,8(sp)
    80201d3c:	6402                	ld	s0,0(sp)
    80201d3e:	0141                	addi	sp,sp,16
    80201d40:	8082                	ret

0000000080201d42 <set_fg_color>:

// 设置前景色
void set_fg_color(color_t color) {
    80201d42:	7179                	addi	sp,sp,-48
    80201d44:	f406                	sd	ra,40(sp)
    80201d46:	f022                	sd	s0,32(sp)
    80201d48:	1800                	addi	s0,sp,48
    80201d4a:	87aa                	mv	a5,a0
    80201d4c:	fcf42e23          	sw	a5,-36(s0)
	int code = 30 + color;
    80201d50:	fdc42783          	lw	a5,-36(s0)
    80201d54:	27f9                	addiw	a5,a5,30
    80201d56:	2781                	sext.w	a5,a5
    80201d58:	fef42623          	sw	a5,-20(s0)
	if (code < 30 || code > 37) return; // 支持30-37
    80201d5c:	fec42783          	lw	a5,-20(s0)
    80201d60:	0007871b          	sext.w	a4,a5
    80201d64:	47f5                	li	a5,29
    80201d66:	04e7d763          	bge	a5,a4,80201db4 <set_fg_color+0x72>
    80201d6a:	fec42783          	lw	a5,-20(s0)
    80201d6e:	0007871b          	sext.w	a4,a5
    80201d72:	02500793          	li	a5,37
    80201d76:	02e7cf63          	blt	a5,a4,80201db4 <set_fg_color+0x72>
	consputc('\033');
    80201d7a:	456d                	li	a0,27
    80201d7c:	fffff097          	auipc	ra,0xfffff
    80201d80:	e7e080e7          	jalr	-386(ra) # 80200bfa <consputc>
	consputc('[');
    80201d84:	05b00513          	li	a0,91
    80201d88:	fffff097          	auipc	ra,0xfffff
    80201d8c:	e72080e7          	jalr	-398(ra) # 80200bfa <consputc>
	printint(code, 10, 0,0,0);
    80201d90:	fec42783          	lw	a5,-20(s0)
    80201d94:	4701                	li	a4,0
    80201d96:	4681                	li	a3,0
    80201d98:	4601                	li	a2,0
    80201d9a:	45a9                	li	a1,10
    80201d9c:	853e                	mv	a0,a5
    80201d9e:	fffff097          	auipc	ra,0xfffff
    80201da2:	eb0080e7          	jalr	-336(ra) # 80200c4e <printint>
	consputc('m');
    80201da6:	06d00513          	li	a0,109
    80201daa:	fffff097          	auipc	ra,0xfffff
    80201dae:	e50080e7          	jalr	-432(ra) # 80200bfa <consputc>
    80201db2:	a011                	j	80201db6 <set_fg_color+0x74>
	if (code < 30 || code > 37) return; // 支持30-37
    80201db4:	0001                	nop
}
    80201db6:	70a2                	ld	ra,40(sp)
    80201db8:	7402                	ld	s0,32(sp)
    80201dba:	6145                	addi	sp,sp,48
    80201dbc:	8082                	ret

0000000080201dbe <set_bg_color>:
// 设置背景色
void set_bg_color(color_t color) {
    80201dbe:	7179                	addi	sp,sp,-48
    80201dc0:	f406                	sd	ra,40(sp)
    80201dc2:	f022                	sd	s0,32(sp)
    80201dc4:	1800                	addi	s0,sp,48
    80201dc6:	87aa                	mv	a5,a0
    80201dc8:	fcf42e23          	sw	a5,-36(s0)
	int code = 30 + color;
    80201dcc:	fdc42783          	lw	a5,-36(s0)
    80201dd0:	27f9                	addiw	a5,a5,30
    80201dd2:	2781                	sext.w	a5,a5
    80201dd4:	fef42623          	sw	a5,-20(s0)
	if (code < 40 || code > 47) return; // 支持40-47
    80201dd8:	fec42783          	lw	a5,-20(s0)
    80201ddc:	0007871b          	sext.w	a4,a5
    80201de0:	02700793          	li	a5,39
    80201de4:	04e7d763          	bge	a5,a4,80201e32 <set_bg_color+0x74>
    80201de8:	fec42783          	lw	a5,-20(s0)
    80201dec:	0007871b          	sext.w	a4,a5
    80201df0:	02f00793          	li	a5,47
    80201df4:	02e7cf63          	blt	a5,a4,80201e32 <set_bg_color+0x74>
	consputc('\033');
    80201df8:	456d                	li	a0,27
    80201dfa:	fffff097          	auipc	ra,0xfffff
    80201dfe:	e00080e7          	jalr	-512(ra) # 80200bfa <consputc>
	consputc('[');
    80201e02:	05b00513          	li	a0,91
    80201e06:	fffff097          	auipc	ra,0xfffff
    80201e0a:	df4080e7          	jalr	-524(ra) # 80200bfa <consputc>
	printint(code, 10, 0,0,0);
    80201e0e:	fec42783          	lw	a5,-20(s0)
    80201e12:	4701                	li	a4,0
    80201e14:	4681                	li	a3,0
    80201e16:	4601                	li	a2,0
    80201e18:	45a9                	li	a1,10
    80201e1a:	853e                	mv	a0,a5
    80201e1c:	fffff097          	auipc	ra,0xfffff
    80201e20:	e32080e7          	jalr	-462(ra) # 80200c4e <printint>
	consputc('m');
    80201e24:	06d00513          	li	a0,109
    80201e28:	fffff097          	auipc	ra,0xfffff
    80201e2c:	dd2080e7          	jalr	-558(ra) # 80200bfa <consputc>
    80201e30:	a011                	j	80201e34 <set_bg_color+0x76>
	if (code < 40 || code > 47) return; // 支持40-47
    80201e32:	0001                	nop
}
    80201e34:	70a2                	ld	ra,40(sp)
    80201e36:	7402                	ld	s0,32(sp)
    80201e38:	6145                	addi	sp,sp,48
    80201e3a:	8082                	ret

0000000080201e3c <clear_line>:
void clear_line(){
    80201e3c:	1141                	addi	sp,sp,-16
    80201e3e:	e406                	sd	ra,8(sp)
    80201e40:	e022                	sd	s0,0(sp)
    80201e42:	0800                	addi	s0,sp,16
	consputc('\033');
    80201e44:	456d                	li	a0,27
    80201e46:	fffff097          	auipc	ra,0xfffff
    80201e4a:	db4080e7          	jalr	-588(ra) # 80200bfa <consputc>
	consputc('[');
    80201e4e:	05b00513          	li	a0,91
    80201e52:	fffff097          	auipc	ra,0xfffff
    80201e56:	da8080e7          	jalr	-600(ra) # 80200bfa <consputc>
	consputc('2');
    80201e5a:	03200513          	li	a0,50
    80201e5e:	fffff097          	auipc	ra,0xfffff
    80201e62:	d9c080e7          	jalr	-612(ra) # 80200bfa <consputc>
	consputc('K');
    80201e66:	04b00513          	li	a0,75
    80201e6a:	fffff097          	auipc	ra,0xfffff
    80201e6e:	d90080e7          	jalr	-624(ra) # 80200bfa <consputc>
}
    80201e72:	0001                	nop
    80201e74:	60a2                	ld	ra,8(sp)
    80201e76:	6402                	ld	s0,0(sp)
    80201e78:	0141                	addi	sp,sp,16
    80201e7a:	8082                	ret

0000000080201e7c <debug>:
void debug(const char *fmt, ...) {
    80201e7c:	711d                	addi	sp,sp,-96
    80201e7e:	ec22                	sd	s0,24(sp)
    80201e80:	1000                	addi	s0,sp,32
    80201e82:	fea43423          	sd	a0,-24(s0)
    80201e86:	e40c                	sd	a1,8(s0)
    80201e88:	e810                	sd	a2,16(s0)
    80201e8a:	ec14                	sd	a3,24(s0)
    80201e8c:	f018                	sd	a4,32(s0)
    80201e8e:	f41c                	sd	a5,40(s0)
    80201e90:	03043823          	sd	a6,48(s0)
    80201e94:	03143c23          	sd	a7,56(s0)
    va_start(ap, fmt);
    vprintf(fmt, ap);
    va_end(ap);
    reset_color();
#endif
}
    80201e98:	0001                	nop
    80201e9a:	6462                	ld	s0,24(sp)
    80201e9c:	6125                	addi	sp,sp,96
    80201e9e:	8082                	ret

0000000080201ea0 <panic>:
void panic(const char *fmt, ...) {
    80201ea0:	7159                	addi	sp,sp,-112
    80201ea2:	f406                	sd	ra,40(sp)
    80201ea4:	f022                	sd	s0,32(sp)
    80201ea6:	1800                	addi	s0,sp,48
    80201ea8:	fca43c23          	sd	a0,-40(s0)
    80201eac:	e40c                	sd	a1,8(s0)
    80201eae:	e810                	sd	a2,16(s0)
    80201eb0:	ec14                	sd	a3,24(s0)
    80201eb2:	f018                	sd	a4,32(s0)
    80201eb4:	f41c                	sd	a5,40(s0)
    80201eb6:	03043823          	sd	a6,48(s0)
    80201eba:	03143c23          	sd	a7,56(s0)
    va_list ap;
    set_fg_color(RED); // 红色显示
    80201ebe:	4505                	li	a0,1
    80201ec0:	00000097          	auipc	ra,0x0
    80201ec4:	e82080e7          	jalr	-382(ra) # 80201d42 <set_fg_color>
    printf("[PANIC] ");
    80201ec8:	00015517          	auipc	a0,0x15
    80201ecc:	bb850513          	addi	a0,a0,-1096 # 80216a80 <user_test_table+0x170>
    80201ed0:	fffff097          	auipc	ra,0xfffff
    80201ed4:	3ae080e7          	jalr	942(ra) # 8020127e <printf>
    va_start(ap, fmt);
    80201ed8:	04040793          	addi	a5,s0,64
    80201edc:	fcf43823          	sd	a5,-48(s0)
    80201ee0:	fd043783          	ld	a5,-48(s0)
    80201ee4:	fc878793          	addi	a5,a5,-56
    80201ee8:	fef43423          	sd	a5,-24(s0)
    vprintf(fmt, ap);
    80201eec:	fe843783          	ld	a5,-24(s0)
    80201ef0:	85be                	mv	a1,a5
    80201ef2:	fd843503          	ld	a0,-40(s0)
    80201ef6:	fffff097          	auipc	ra,0xfffff
    80201efa:	e92080e7          	jalr	-366(ra) # 80200d88 <vprintf>
    va_end(ap);
    reset_color();
    80201efe:	00000097          	auipc	ra,0x0
    80201f02:	e22080e7          	jalr	-478(ra) # 80201d20 <reset_color>
    while (1) { /* 死循环，防止继续执行 */ }
    80201f06:	0001                	nop
    80201f08:	bffd                	j	80201f06 <panic+0x66>

0000000080201f0a <warning>:
}
void warning(const char *fmt, ...) {
    80201f0a:	7159                	addi	sp,sp,-112
    80201f0c:	f406                	sd	ra,40(sp)
    80201f0e:	f022                	sd	s0,32(sp)
    80201f10:	1800                	addi	s0,sp,48
    80201f12:	fca43c23          	sd	a0,-40(s0)
    80201f16:	e40c                	sd	a1,8(s0)
    80201f18:	e810                	sd	a2,16(s0)
    80201f1a:	ec14                	sd	a3,24(s0)
    80201f1c:	f018                	sd	a4,32(s0)
    80201f1e:	f41c                	sd	a5,40(s0)
    80201f20:	03043823          	sd	a6,48(s0)
    80201f24:	03143c23          	sd	a7,56(s0)
    va_list ap;
    set_fg_color(PURPLE); // 设置紫色
    80201f28:	4515                	li	a0,5
    80201f2a:	00000097          	auipc	ra,0x0
    80201f2e:	e18080e7          	jalr	-488(ra) # 80201d42 <set_fg_color>
    printf("[WARNING] ");
    80201f32:	00015517          	auipc	a0,0x15
    80201f36:	b5e50513          	addi	a0,a0,-1186 # 80216a90 <user_test_table+0x180>
    80201f3a:	fffff097          	auipc	ra,0xfffff
    80201f3e:	344080e7          	jalr	836(ra) # 8020127e <printf>
    va_start(ap, fmt);
    80201f42:	04040793          	addi	a5,s0,64
    80201f46:	fcf43823          	sd	a5,-48(s0)
    80201f4a:	fd043783          	ld	a5,-48(s0)
    80201f4e:	fc878793          	addi	a5,a5,-56
    80201f52:	fef43423          	sd	a5,-24(s0)
    vprintf(fmt, ap);
    80201f56:	fe843783          	ld	a5,-24(s0)
    80201f5a:	85be                	mv	a1,a5
    80201f5c:	fd843503          	ld	a0,-40(s0)
    80201f60:	fffff097          	auipc	ra,0xfffff
    80201f64:	e28080e7          	jalr	-472(ra) # 80200d88 <vprintf>
    va_end(ap);
    reset_color(); // 恢复默认颜色
    80201f68:	00000097          	auipc	ra,0x0
    80201f6c:	db8080e7          	jalr	-584(ra) # 80201d20 <reset_color>
    80201f70:	0001                	nop
    80201f72:	70a2                	ld	ra,40(sp)
    80201f74:	7402                	ld	s0,32(sp)
    80201f76:	6165                	addi	sp,sp,112
    80201f78:	8082                	ret

0000000080201f7a <memset>:
#include "defs.h"
// 自行实现memset
void *memset(void *dst, int c, unsigned long n) {
    80201f7a:	7139                	addi	sp,sp,-64
    80201f7c:	fc22                	sd	s0,56(sp)
    80201f7e:	0080                	addi	s0,sp,64
    80201f80:	fca43c23          	sd	a0,-40(s0)
    80201f84:	87ae                	mv	a5,a1
    80201f86:	fcc43423          	sd	a2,-56(s0)
    80201f8a:	fcf42a23          	sw	a5,-44(s0)
    unsigned char *p = dst;
    80201f8e:	fd843783          	ld	a5,-40(s0)
    80201f92:	fef43423          	sd	a5,-24(s0)
    while (n-- > 0)
    80201f96:	a829                	j	80201fb0 <memset+0x36>
        *p++ = (unsigned char)c;
    80201f98:	fe843783          	ld	a5,-24(s0)
    80201f9c:	00178713          	addi	a4,a5,1
    80201fa0:	fee43423          	sd	a4,-24(s0)
    80201fa4:	fd442703          	lw	a4,-44(s0)
    80201fa8:	0ff77713          	zext.b	a4,a4
    80201fac:	00e78023          	sb	a4,0(a5)
    while (n-- > 0)
    80201fb0:	fc843783          	ld	a5,-56(s0)
    80201fb4:	fff78713          	addi	a4,a5,-1
    80201fb8:	fce43423          	sd	a4,-56(s0)
    80201fbc:	fff1                	bnez	a5,80201f98 <memset+0x1e>
    return dst;
    80201fbe:	fd843783          	ld	a5,-40(s0)
}
    80201fc2:	853e                	mv	a0,a5
    80201fc4:	7462                	ld	s0,56(sp)
    80201fc6:	6121                	addi	sp,sp,64
    80201fc8:	8082                	ret

0000000080201fca <memmove>:
void *memmove(void *dst, const void *src, unsigned long n) {
    80201fca:	7139                	addi	sp,sp,-64
    80201fcc:	fc22                	sd	s0,56(sp)
    80201fce:	0080                	addi	s0,sp,64
    80201fd0:	fca43c23          	sd	a0,-40(s0)
    80201fd4:	fcb43823          	sd	a1,-48(s0)
    80201fd8:	fcc43423          	sd	a2,-56(s0)
	unsigned char *d = dst;
    80201fdc:	fd843783          	ld	a5,-40(s0)
    80201fe0:	fef43423          	sd	a5,-24(s0)
	const unsigned char *s = src;
    80201fe4:	fd043783          	ld	a5,-48(s0)
    80201fe8:	fef43023          	sd	a5,-32(s0)
	if (d < s) {
    80201fec:	fe843703          	ld	a4,-24(s0)
    80201ff0:	fe043783          	ld	a5,-32(s0)
    80201ff4:	02f77b63          	bgeu	a4,a5,8020202a <memmove+0x60>
		while (n-- > 0)
    80201ff8:	a00d                	j	8020201a <memmove+0x50>
			*d++ = *s++;
    80201ffa:	fe043703          	ld	a4,-32(s0)
    80201ffe:	00170793          	addi	a5,a4,1
    80202002:	fef43023          	sd	a5,-32(s0)
    80202006:	fe843783          	ld	a5,-24(s0)
    8020200a:	00178693          	addi	a3,a5,1
    8020200e:	fed43423          	sd	a3,-24(s0)
    80202012:	00074703          	lbu	a4,0(a4)
    80202016:	00e78023          	sb	a4,0(a5)
		while (n-- > 0)
    8020201a:	fc843783          	ld	a5,-56(s0)
    8020201e:	fff78713          	addi	a4,a5,-1
    80202022:	fce43423          	sd	a4,-56(s0)
    80202026:	fbf1                	bnez	a5,80201ffa <memmove+0x30>
    80202028:	a889                	j	8020207a <memmove+0xb0>
	} else {
		d += n;
    8020202a:	fe843703          	ld	a4,-24(s0)
    8020202e:	fc843783          	ld	a5,-56(s0)
    80202032:	97ba                	add	a5,a5,a4
    80202034:	fef43423          	sd	a5,-24(s0)
		s += n;
    80202038:	fe043703          	ld	a4,-32(s0)
    8020203c:	fc843783          	ld	a5,-56(s0)
    80202040:	97ba                	add	a5,a5,a4
    80202042:	fef43023          	sd	a5,-32(s0)
		while (n-- > 0)
    80202046:	a01d                	j	8020206c <memmove+0xa2>
			*(--d) = *(--s);
    80202048:	fe043783          	ld	a5,-32(s0)
    8020204c:	17fd                	addi	a5,a5,-1
    8020204e:	fef43023          	sd	a5,-32(s0)
    80202052:	fe843783          	ld	a5,-24(s0)
    80202056:	17fd                	addi	a5,a5,-1
    80202058:	fef43423          	sd	a5,-24(s0)
    8020205c:	fe043783          	ld	a5,-32(s0)
    80202060:	0007c703          	lbu	a4,0(a5)
    80202064:	fe843783          	ld	a5,-24(s0)
    80202068:	00e78023          	sb	a4,0(a5)
		while (n-- > 0)
    8020206c:	fc843783          	ld	a5,-56(s0)
    80202070:	fff78713          	addi	a4,a5,-1
    80202074:	fce43423          	sd	a4,-56(s0)
    80202078:	fbe1                	bnez	a5,80202048 <memmove+0x7e>
	}
	return dst;
    8020207a:	fd843783          	ld	a5,-40(s0)
}
    8020207e:	853e                	mv	a0,a5
    80202080:	7462                	ld	s0,56(sp)
    80202082:	6121                	addi	sp,sp,64
    80202084:	8082                	ret

0000000080202086 <memcpy>:
void *memcpy(void *dst, const void *src, size_t n) {
    80202086:	715d                	addi	sp,sp,-80
    80202088:	e4a2                	sd	s0,72(sp)
    8020208a:	0880                	addi	s0,sp,80
    8020208c:	fca43423          	sd	a0,-56(s0)
    80202090:	fcb43023          	sd	a1,-64(s0)
    80202094:	fac43c23          	sd	a2,-72(s0)
    char *d = dst;
    80202098:	fc843783          	ld	a5,-56(s0)
    8020209c:	fef43023          	sd	a5,-32(s0)
    const char *s = src;
    802020a0:	fc043783          	ld	a5,-64(s0)
    802020a4:	fcf43c23          	sd	a5,-40(s0)
    for (size_t i = 0; i < n; i++) {
    802020a8:	fe043423          	sd	zero,-24(s0)
    802020ac:	a025                	j	802020d4 <memcpy+0x4e>
        d[i] = s[i];
    802020ae:	fd843703          	ld	a4,-40(s0)
    802020b2:	fe843783          	ld	a5,-24(s0)
    802020b6:	973e                	add	a4,a4,a5
    802020b8:	fe043683          	ld	a3,-32(s0)
    802020bc:	fe843783          	ld	a5,-24(s0)
    802020c0:	97b6                	add	a5,a5,a3
    802020c2:	00074703          	lbu	a4,0(a4)
    802020c6:	00e78023          	sb	a4,0(a5)
    for (size_t i = 0; i < n; i++) {
    802020ca:	fe843783          	ld	a5,-24(s0)
    802020ce:	0785                	addi	a5,a5,1
    802020d0:	fef43423          	sd	a5,-24(s0)
    802020d4:	fe843703          	ld	a4,-24(s0)
    802020d8:	fb843783          	ld	a5,-72(s0)
    802020dc:	fcf769e3          	bltu	a4,a5,802020ae <memcpy+0x28>
    }
    return dst;
    802020e0:	fc843783          	ld	a5,-56(s0)
    802020e4:	853e                	mv	a0,a5
    802020e6:	6426                	ld	s0,72(sp)
    802020e8:	6161                	addi	sp,sp,80
    802020ea:	8082                	ret

00000000802020ec <sv39_sign_extend>:
    802020ec:	1101                	addi	sp,sp,-32
    802020ee:	ec22                	sd	s0,24(sp)
    802020f0:	1000                	addi	s0,sp,32
    802020f2:	fea43423          	sd	a0,-24(s0)
    802020f6:	fe843703          	ld	a4,-24(s0)
    802020fa:	4785                	li	a5,1
    802020fc:	179a                	slli	a5,a5,0x26
    802020fe:	8ff9                	and	a5,a5,a4
    80202100:	c799                	beqz	a5,8020210e <sv39_sign_extend+0x22>
    80202102:	fe843703          	ld	a4,-24(s0)
    80202106:	57fd                	li	a5,-1
    80202108:	179e                	slli	a5,a5,0x27
    8020210a:	8fd9                	or	a5,a5,a4
    8020210c:	a031                	j	80202118 <sv39_sign_extend+0x2c>
    8020210e:	fe843703          	ld	a4,-24(s0)
    80202112:	57fd                	li	a5,-1
    80202114:	83e5                	srli	a5,a5,0x19
    80202116:	8ff9                	and	a5,a5,a4
    80202118:	853e                	mv	a0,a5
    8020211a:	6462                	ld	s0,24(sp)
    8020211c:	6105                	addi	sp,sp,32
    8020211e:	8082                	ret

0000000080202120 <sv39_check_valid>:
    80202120:	1101                	addi	sp,sp,-32
    80202122:	ec22                	sd	s0,24(sp)
    80202124:	1000                	addi	s0,sp,32
    80202126:	fea43423          	sd	a0,-24(s0)
    8020212a:	fe843703          	ld	a4,-24(s0)
    8020212e:	57fd                	li	a5,-1
    80202130:	83e5                	srli	a5,a5,0x19
    80202132:	00e7f863          	bgeu	a5,a4,80202142 <sv39_check_valid+0x22>
    80202136:	fe843703          	ld	a4,-24(s0)
    8020213a:	57fd                	li	a5,-1
    8020213c:	179e                	slli	a5,a5,0x27
    8020213e:	00f76463          	bltu	a4,a5,80202146 <sv39_check_valid+0x26>
    80202142:	4785                	li	a5,1
    80202144:	a011                	j	80202148 <sv39_check_valid+0x28>
    80202146:	4781                	li	a5,0
    80202148:	853e                	mv	a0,a5
    8020214a:	6462                	ld	s0,24(sp)
    8020214c:	6105                	addi	sp,sp,32
    8020214e:	8082                	ret

0000000080202150 <px>:
static inline uint64 px(int level, uint64 va) {
    80202150:	1101                	addi	sp,sp,-32
    80202152:	ec22                	sd	s0,24(sp)
    80202154:	1000                	addi	s0,sp,32
    80202156:	87aa                	mv	a5,a0
    80202158:	feb43023          	sd	a1,-32(s0)
    8020215c:	fef42623          	sw	a5,-20(s0)
    return VPN_MASK(va, level);
    80202160:	fec42783          	lw	a5,-20(s0)
    80202164:	873e                	mv	a4,a5
    80202166:	87ba                	mv	a5,a4
    80202168:	0037979b          	slliw	a5,a5,0x3
    8020216c:	9fb9                	addw	a5,a5,a4
    8020216e:	2781                	sext.w	a5,a5
    80202170:	27b1                	addiw	a5,a5,12
    80202172:	2781                	sext.w	a5,a5
    80202174:	873e                	mv	a4,a5
    80202176:	fe043783          	ld	a5,-32(s0)
    8020217a:	00e7d7b3          	srl	a5,a5,a4
    8020217e:	1ff7f793          	andi	a5,a5,511
}
    80202182:	853e                	mv	a0,a5
    80202184:	6462                	ld	s0,24(sp)
    80202186:	6105                	addi	sp,sp,32
    80202188:	8082                	ret

000000008020218a <create_pagetable>:
pagetable_t create_pagetable(void) {
    8020218a:	1101                	addi	sp,sp,-32
    8020218c:	ec06                	sd	ra,24(sp)
    8020218e:	e822                	sd	s0,16(sp)
    80202190:	1000                	addi	s0,sp,32
    pagetable_t pt = (pagetable_t)alloc_page();
    80202192:	00001097          	auipc	ra,0x1
    80202196:	684080e7          	jalr	1668(ra) # 80203816 <alloc_page>
    8020219a:	fea43423          	sd	a0,-24(s0)
    if (!pt)
    8020219e:	fe843783          	ld	a5,-24(s0)
    802021a2:	e399                	bnez	a5,802021a8 <create_pagetable+0x1e>
        return 0;
    802021a4:	4781                	li	a5,0
    802021a6:	a819                	j	802021bc <create_pagetable+0x32>
    memset(pt, 0, PGSIZE);
    802021a8:	6605                	lui	a2,0x1
    802021aa:	4581                	li	a1,0
    802021ac:	fe843503          	ld	a0,-24(s0)
    802021b0:	00000097          	auipc	ra,0x0
    802021b4:	dca080e7          	jalr	-566(ra) # 80201f7a <memset>
    return pt;
    802021b8:	fe843783          	ld	a5,-24(s0)
}
    802021bc:	853e                	mv	a0,a5
    802021be:	60e2                	ld	ra,24(sp)
    802021c0:	6442                	ld	s0,16(sp)
    802021c2:	6105                	addi	sp,sp,32
    802021c4:	8082                	ret

00000000802021c6 <walk_lookup>:
pte_t* walk_lookup(pagetable_t pt, uint64 va) {
    802021c6:	7139                	addi	sp,sp,-64
    802021c8:	fc06                	sd	ra,56(sp)
    802021ca:	f822                	sd	s0,48(sp)
    802021cc:	0080                	addi	s0,sp,64
    802021ce:	fca43423          	sd	a0,-56(s0)
    802021d2:	fcb43023          	sd	a1,-64(s0)
    va = sv39_sign_extend(va);
    802021d6:	fc043503          	ld	a0,-64(s0)
    802021da:	00000097          	auipc	ra,0x0
    802021de:	f12080e7          	jalr	-238(ra) # 802020ec <sv39_sign_extend>
    802021e2:	fca43023          	sd	a0,-64(s0)
    if (!sv39_check_valid(va)) {
    802021e6:	fc043503          	ld	a0,-64(s0)
    802021ea:	00000097          	auipc	ra,0x0
    802021ee:	f36080e7          	jalr	-202(ra) # 80202120 <sv39_check_valid>
    802021f2:	87aa                	mv	a5,a0
    802021f4:	ef89                	bnez	a5,8020220e <walk_lookup+0x48>
        debug("[WALK_LOOKUP] va out of sv39 range: 0x%lx\n", va);
    802021f6:	fc043583          	ld	a1,-64(s0)
    802021fa:	00019517          	auipc	a0,0x19
    802021fe:	a0650513          	addi	a0,a0,-1530 # 8021ac00 <user_test_table+0x78>
    80202202:	00000097          	auipc	ra,0x0
    80202206:	c7a080e7          	jalr	-902(ra) # 80201e7c <debug>
        return 0;
    8020220a:	4781                	li	a5,0
    8020220c:	a0e9                	j	802022d6 <walk_lookup+0x110>
    for (int level = 2; level > 0; level--) {
    8020220e:	4789                	li	a5,2
    80202210:	fef42623          	sw	a5,-20(s0)
    80202214:	a045                	j	802022b4 <walk_lookup+0xee>
        pte_t *pte = &pt[px(level, va)];
    80202216:	fec42783          	lw	a5,-20(s0)
    8020221a:	fc043583          	ld	a1,-64(s0)
    8020221e:	853e                	mv	a0,a5
    80202220:	00000097          	auipc	ra,0x0
    80202224:	f30080e7          	jalr	-208(ra) # 80202150 <px>
    80202228:	87aa                	mv	a5,a0
    8020222a:	078e                	slli	a5,a5,0x3
    8020222c:	fc843703          	ld	a4,-56(s0)
    80202230:	97ba                	add	a5,a5,a4
    80202232:	fef43023          	sd	a5,-32(s0)
        if (*pte & PTE_V) {
    80202236:	fe043783          	ld	a5,-32(s0)
    8020223a:	639c                	ld	a5,0(a5)
    8020223c:	8b85                	andi	a5,a5,1
    8020223e:	c7b9                	beqz	a5,8020228c <walk_lookup+0xc6>
            uint64 pa = PTE2PA(*pte);
    80202240:	fe043783          	ld	a5,-32(s0)
    80202244:	639c                	ld	a5,0(a5)
    80202246:	83a9                	srli	a5,a5,0xa
    80202248:	07b2                	slli	a5,a5,0xc
    8020224a:	fcf43c23          	sd	a5,-40(s0)
            if (pa == 0 || (pa % PGSIZE) != 0) {
    8020224e:	fd843783          	ld	a5,-40(s0)
    80202252:	c799                	beqz	a5,80202260 <walk_lookup+0x9a>
    80202254:	fd843703          	ld	a4,-40(s0)
    80202258:	6785                	lui	a5,0x1
    8020225a:	17fd                	addi	a5,a5,-1 # fff <_entry-0x801ff001>
    8020225c:	8ff9                	and	a5,a5,a4
    8020225e:	c395                	beqz	a5,80202282 <walk_lookup+0xbc>
                debug("[WALK_LOOKUP] 无效页表物理地址: 0x%lx (level %d, va=0x%lx)\n", pa, level, va);
    80202260:	fec42783          	lw	a5,-20(s0)
    80202264:	fc043683          	ld	a3,-64(s0)
    80202268:	863e                	mv	a2,a5
    8020226a:	fd843583          	ld	a1,-40(s0)
    8020226e:	00019517          	auipc	a0,0x19
    80202272:	9c250513          	addi	a0,a0,-1598 # 8021ac30 <user_test_table+0xa8>
    80202276:	00000097          	auipc	ra,0x0
    8020227a:	c06080e7          	jalr	-1018(ra) # 80201e7c <debug>
                return 0;
    8020227e:	4781                	li	a5,0
    80202280:	a899                	j	802022d6 <walk_lookup+0x110>
            pt = (pagetable_t)pa;
    80202282:	fd843783          	ld	a5,-40(s0)
    80202286:	fcf43423          	sd	a5,-56(s0)
    8020228a:	a005                	j	802022aa <walk_lookup+0xe4>
            debug("[WALK_LOOKUP] 页表项无效: level=%d va=0x%lx\n", level, va);
    8020228c:	fec42783          	lw	a5,-20(s0)
    80202290:	fc043603          	ld	a2,-64(s0)
    80202294:	85be                	mv	a1,a5
    80202296:	00019517          	auipc	a0,0x19
    8020229a:	9e250513          	addi	a0,a0,-1566 # 8021ac78 <user_test_table+0xf0>
    8020229e:	00000097          	auipc	ra,0x0
    802022a2:	bde080e7          	jalr	-1058(ra) # 80201e7c <debug>
            return 0;
    802022a6:	4781                	li	a5,0
    802022a8:	a03d                	j	802022d6 <walk_lookup+0x110>
    for (int level = 2; level > 0; level--) {
    802022aa:	fec42783          	lw	a5,-20(s0)
    802022ae:	37fd                	addiw	a5,a5,-1
    802022b0:	fef42623          	sw	a5,-20(s0)
    802022b4:	fec42783          	lw	a5,-20(s0)
    802022b8:	2781                	sext.w	a5,a5
    802022ba:	f4f04ee3          	bgtz	a5,80202216 <walk_lookup+0x50>
    return &pt[px(0, va)];
    802022be:	fc043583          	ld	a1,-64(s0)
    802022c2:	4501                	li	a0,0
    802022c4:	00000097          	auipc	ra,0x0
    802022c8:	e8c080e7          	jalr	-372(ra) # 80202150 <px>
    802022cc:	87aa                	mv	a5,a0
    802022ce:	078e                	slli	a5,a5,0x3
    802022d0:	fc843703          	ld	a4,-56(s0)
    802022d4:	97ba                	add	a5,a5,a4
}
    802022d6:	853e                	mv	a0,a5
    802022d8:	70e2                	ld	ra,56(sp)
    802022da:	7442                	ld	s0,48(sp)
    802022dc:	6121                	addi	sp,sp,64
    802022de:	8082                	ret

00000000802022e0 <walk_create>:
static pte_t* walk_create(pagetable_t pt, uint64 va) {
    802022e0:	7139                	addi	sp,sp,-64
    802022e2:	fc06                	sd	ra,56(sp)
    802022e4:	f822                	sd	s0,48(sp)
    802022e6:	0080                	addi	s0,sp,64
    802022e8:	fca43423          	sd	a0,-56(s0)
    802022ec:	fcb43023          	sd	a1,-64(s0)
	va = sv39_sign_extend(va);
    802022f0:	fc043503          	ld	a0,-64(s0)
    802022f4:	00000097          	auipc	ra,0x0
    802022f8:	df8080e7          	jalr	-520(ra) # 802020ec <sv39_sign_extend>
    802022fc:	fca43023          	sd	a0,-64(s0)
	if (!sv39_check_valid(va))
    80202300:	fc043503          	ld	a0,-64(s0)
    80202304:	00000097          	auipc	ra,0x0
    80202308:	e1c080e7          	jalr	-484(ra) # 80202120 <sv39_check_valid>
    8020230c:	87aa                	mv	a5,a0
    8020230e:	eb89                	bnez	a5,80202320 <walk_create+0x40>
		panic("va out of sv39 range");
    80202310:	00019517          	auipc	a0,0x19
    80202314:	9a050513          	addi	a0,a0,-1632 # 8021acb0 <user_test_table+0x128>
    80202318:	00000097          	auipc	ra,0x0
    8020231c:	b88080e7          	jalr	-1144(ra) # 80201ea0 <panic>
    for (int level = 2; level > 0; level--) {
    80202320:	4789                	li	a5,2
    80202322:	fef42623          	sw	a5,-20(s0)
    80202326:	a059                	j	802023ac <walk_create+0xcc>
        pte_t *pte = &pt[px(level, va)];
    80202328:	fec42783          	lw	a5,-20(s0)
    8020232c:	fc043583          	ld	a1,-64(s0)
    80202330:	853e                	mv	a0,a5
    80202332:	00000097          	auipc	ra,0x0
    80202336:	e1e080e7          	jalr	-482(ra) # 80202150 <px>
    8020233a:	87aa                	mv	a5,a0
    8020233c:	078e                	slli	a5,a5,0x3
    8020233e:	fc843703          	ld	a4,-56(s0)
    80202342:	97ba                	add	a5,a5,a4
    80202344:	fef43023          	sd	a5,-32(s0)
        if (*pte & PTE_V) {
    80202348:	fe043783          	ld	a5,-32(s0)
    8020234c:	639c                	ld	a5,0(a5)
    8020234e:	8b85                	andi	a5,a5,1
    80202350:	cb89                	beqz	a5,80202362 <walk_create+0x82>
            pt = (pagetable_t)PTE2PA(*pte);
    80202352:	fe043783          	ld	a5,-32(s0)
    80202356:	639c                	ld	a5,0(a5)
    80202358:	83a9                	srli	a5,a5,0xa
    8020235a:	07b2                	slli	a5,a5,0xc
    8020235c:	fcf43423          	sd	a5,-56(s0)
    80202360:	a089                	j	802023a2 <walk_create+0xc2>
            pagetable_t new_pt = (pagetable_t)alloc_page();
    80202362:	00001097          	auipc	ra,0x1
    80202366:	4b4080e7          	jalr	1204(ra) # 80203816 <alloc_page>
    8020236a:	fca43c23          	sd	a0,-40(s0)
            if (!new_pt)
    8020236e:	fd843783          	ld	a5,-40(s0)
    80202372:	e399                	bnez	a5,80202378 <walk_create+0x98>
                return 0;
    80202374:	4781                	li	a5,0
    80202376:	a8a1                	j	802023ce <walk_create+0xee>
            memset(new_pt, 0, PGSIZE);
    80202378:	6605                	lui	a2,0x1
    8020237a:	4581                	li	a1,0
    8020237c:	fd843503          	ld	a0,-40(s0)
    80202380:	00000097          	auipc	ra,0x0
    80202384:	bfa080e7          	jalr	-1030(ra) # 80201f7a <memset>
            *pte = PA2PTE(new_pt) | PTE_V;
    80202388:	fd843783          	ld	a5,-40(s0)
    8020238c:	83b1                	srli	a5,a5,0xc
    8020238e:	07aa                	slli	a5,a5,0xa
    80202390:	0017e713          	ori	a4,a5,1
    80202394:	fe043783          	ld	a5,-32(s0)
    80202398:	e398                	sd	a4,0(a5)
            pt = new_pt;
    8020239a:	fd843783          	ld	a5,-40(s0)
    8020239e:	fcf43423          	sd	a5,-56(s0)
    for (int level = 2; level > 0; level--) {
    802023a2:	fec42783          	lw	a5,-20(s0)
    802023a6:	37fd                	addiw	a5,a5,-1
    802023a8:	fef42623          	sw	a5,-20(s0)
    802023ac:	fec42783          	lw	a5,-20(s0)
    802023b0:	2781                	sext.w	a5,a5
    802023b2:	f6f04be3          	bgtz	a5,80202328 <walk_create+0x48>
    return &pt[px(0, va)];
    802023b6:	fc043583          	ld	a1,-64(s0)
    802023ba:	4501                	li	a0,0
    802023bc:	00000097          	auipc	ra,0x0
    802023c0:	d94080e7          	jalr	-620(ra) # 80202150 <px>
    802023c4:	87aa                	mv	a5,a0
    802023c6:	078e                	slli	a5,a5,0x3
    802023c8:	fc843703          	ld	a4,-56(s0)
    802023cc:	97ba                	add	a5,a5,a4
}
    802023ce:	853e                	mv	a0,a5
    802023d0:	70e2                	ld	ra,56(sp)
    802023d2:	7442                	ld	s0,48(sp)
    802023d4:	6121                	addi	sp,sp,64
    802023d6:	8082                	ret

00000000802023d8 <map_page>:
int map_page(pagetable_t pt, uint64 va, uint64 pa, int perm) {
    802023d8:	715d                	addi	sp,sp,-80
    802023da:	e486                	sd	ra,72(sp)
    802023dc:	e0a2                	sd	s0,64(sp)
    802023de:	0880                	addi	s0,sp,80
    802023e0:	fca43423          	sd	a0,-56(s0)
    802023e4:	fcb43023          	sd	a1,-64(s0)
    802023e8:	fac43c23          	sd	a2,-72(s0)
    802023ec:	87b6                	mv	a5,a3
    802023ee:	faf42a23          	sw	a5,-76(s0)
    struct proc *p = myproc();
    802023f2:	00003097          	auipc	ra,0x3
    802023f6:	e8c080e7          	jalr	-372(ra) # 8020527e <myproc>
    802023fa:	fea43023          	sd	a0,-32(s0)
	if (p && p->is_user && va >= 0x80000000
    802023fe:	fe043783          	ld	a5,-32(s0)
    80202402:	c7a9                	beqz	a5,8020244c <map_page+0x74>
    80202404:	fe043783          	ld	a5,-32(s0)
    80202408:	0b07a783          	lw	a5,176(a5)
    8020240c:	c3a1                	beqz	a5,8020244c <map_page+0x74>
    8020240e:	fc043703          	ld	a4,-64(s0)
    80202412:	800007b7          	lui	a5,0x80000
    80202416:	fff7c793          	not	a5,a5
    8020241a:	02e7f963          	bgeu	a5,a4,8020244c <map_page+0x74>
		&& va != TRAMPOLINE
    8020241e:	fc043703          	ld	a4,-64(s0)
    80202422:	77fd                	lui	a5,0xfffff
    80202424:	02f70463          	beq	a4,a5,8020244c <map_page+0x74>
		&& va != TRAPFRAME) {
    80202428:	fc043703          	ld	a4,-64(s0)
    8020242c:	77f9                	lui	a5,0xffffe
    8020242e:	00f70f63          	beq	a4,a5,8020244c <map_page+0x74>
		warning("map_page: 用户进程禁止映射内核空间");
    80202432:	00019517          	auipc	a0,0x19
    80202436:	89650513          	addi	a0,a0,-1898 # 8021acc8 <user_test_table+0x140>
    8020243a:	00000097          	auipc	ra,0x0
    8020243e:	ad0080e7          	jalr	-1328(ra) # 80201f0a <warning>
		exit_proc(-1);
    80202442:	557d                	li	a0,-1
    80202444:	00004097          	auipc	ra,0x4
    80202448:	d9a080e7          	jalr	-614(ra) # 802061de <exit_proc>
    if ((va % PGSIZE) != 0)
    8020244c:	fc043703          	ld	a4,-64(s0)
    80202450:	6785                	lui	a5,0x1
    80202452:	17fd                	addi	a5,a5,-1 # fff <_entry-0x801ff001>
    80202454:	8ff9                	and	a5,a5,a4
    80202456:	cb89                	beqz	a5,80202468 <map_page+0x90>
        panic("map_page: va not aligned");
    80202458:	00019517          	auipc	a0,0x19
    8020245c:	8a050513          	addi	a0,a0,-1888 # 8021acf8 <user_test_table+0x170>
    80202460:	00000097          	auipc	ra,0x0
    80202464:	a40080e7          	jalr	-1472(ra) # 80201ea0 <panic>
    pte_t *pte = walk_create(pt, va);
    80202468:	fc043583          	ld	a1,-64(s0)
    8020246c:	fc843503          	ld	a0,-56(s0)
    80202470:	00000097          	auipc	ra,0x0
    80202474:	e70080e7          	jalr	-400(ra) # 802022e0 <walk_create>
    80202478:	fca43c23          	sd	a0,-40(s0)
    if (!pte)
    8020247c:	fd843783          	ld	a5,-40(s0)
    80202480:	e399                	bnez	a5,80202486 <map_page+0xae>
        return -1;
    80202482:	57fd                	li	a5,-1
    80202484:	a87d                	j	80202542 <map_page+0x16a>
    if (va >= 0x80000000)
    80202486:	fc043703          	ld	a4,-64(s0)
    8020248a:	800007b7          	lui	a5,0x80000
    8020248e:	fff7c793          	not	a5,a5
    80202492:	00e7f763          	bgeu	a5,a4,802024a0 <map_page+0xc8>
        perm &= ~PTE_U;
    80202496:	fb442783          	lw	a5,-76(s0)
    8020249a:	9bbd                	andi	a5,a5,-17
    8020249c:	faf42a23          	sw	a5,-76(s0)
    if (*pte & PTE_V) {
    802024a0:	fd843783          	ld	a5,-40(s0)
    802024a4:	639c                	ld	a5,0(a5)
    802024a6:	8b85                	andi	a5,a5,1
    802024a8:	cfbd                	beqz	a5,80202526 <map_page+0x14e>
        if (PTE2PA(*pte) == pa) {
    802024aa:	fd843783          	ld	a5,-40(s0)
    802024ae:	639c                	ld	a5,0(a5)
    802024b0:	83a9                	srli	a5,a5,0xa
    802024b2:	07b2                	slli	a5,a5,0xc
    802024b4:	fb843703          	ld	a4,-72(s0)
    802024b8:	04f71f63          	bne	a4,a5,80202516 <map_page+0x13e>
            int new_perm = (PTE_FLAGS(*pte) | perm) & 0x3FF;
    802024bc:	fd843783          	ld	a5,-40(s0)
    802024c0:	639c                	ld	a5,0(a5)
    802024c2:	2781                	sext.w	a5,a5
    802024c4:	3ff7f793          	andi	a5,a5,1023
    802024c8:	0007871b          	sext.w	a4,a5
    802024cc:	fb442783          	lw	a5,-76(s0)
    802024d0:	8fd9                	or	a5,a5,a4
    802024d2:	2781                	sext.w	a5,a5
    802024d4:	2781                	sext.w	a5,a5
    802024d6:	3ff7f793          	andi	a5,a5,1023
    802024da:	fef42623          	sw	a5,-20(s0)
            if (va >= 0x80000000)
    802024de:	fc043703          	ld	a4,-64(s0)
    802024e2:	800007b7          	lui	a5,0x80000
    802024e6:	fff7c793          	not	a5,a5
    802024ea:	00e7f763          	bgeu	a5,a4,802024f8 <map_page+0x120>
                new_perm &= ~PTE_U;
    802024ee:	fec42783          	lw	a5,-20(s0)
    802024f2:	9bbd                	andi	a5,a5,-17
    802024f4:	fef42623          	sw	a5,-20(s0)
            *pte = PA2PTE(pa) | new_perm | PTE_V;
    802024f8:	fb843783          	ld	a5,-72(s0)
    802024fc:	83b1                	srli	a5,a5,0xc
    802024fe:	00a79713          	slli	a4,a5,0xa
    80202502:	fec42783          	lw	a5,-20(s0)
    80202506:	8fd9                	or	a5,a5,a4
    80202508:	0017e713          	ori	a4,a5,1
    8020250c:	fd843783          	ld	a5,-40(s0)
    80202510:	e398                	sd	a4,0(a5)
            return 0;
    80202512:	4781                	li	a5,0
    80202514:	a03d                	j	80202542 <map_page+0x16a>
            panic("map_page: remap to different physical address");
    80202516:	00019517          	auipc	a0,0x19
    8020251a:	80250513          	addi	a0,a0,-2046 # 8021ad18 <user_test_table+0x190>
    8020251e:	00000097          	auipc	ra,0x0
    80202522:	982080e7          	jalr	-1662(ra) # 80201ea0 <panic>
    *pte = PA2PTE(pa) | perm | PTE_V;
    80202526:	fb843783          	ld	a5,-72(s0)
    8020252a:	83b1                	srli	a5,a5,0xc
    8020252c:	00a79713          	slli	a4,a5,0xa
    80202530:	fb442783          	lw	a5,-76(s0)
    80202534:	8fd9                	or	a5,a5,a4
    80202536:	0017e713          	ori	a4,a5,1
    8020253a:	fd843783          	ld	a5,-40(s0)
    8020253e:	e398                	sd	a4,0(a5)
    return 0;
    80202540:	4781                	li	a5,0
}
    80202542:	853e                	mv	a0,a5
    80202544:	60a6                	ld	ra,72(sp)
    80202546:	6406                	ld	s0,64(sp)
    80202548:	6161                	addi	sp,sp,80
    8020254a:	8082                	ret

000000008020254c <free_pagetable>:
void free_pagetable(pagetable_t pt) {
    8020254c:	7139                	addi	sp,sp,-64
    8020254e:	fc06                	sd	ra,56(sp)
    80202550:	f822                	sd	s0,48(sp)
    80202552:	0080                	addi	s0,sp,64
    80202554:	fca43423          	sd	a0,-56(s0)
    for (int i = 0; i < 512; i++) {
    80202558:	fe042623          	sw	zero,-20(s0)
    8020255c:	a8a5                	j	802025d4 <free_pagetable+0x88>
        pte_t pte = pt[i];
    8020255e:	fec42783          	lw	a5,-20(s0)
    80202562:	078e                	slli	a5,a5,0x3
    80202564:	fc843703          	ld	a4,-56(s0)
    80202568:	97ba                	add	a5,a5,a4
    8020256a:	639c                	ld	a5,0(a5)
    8020256c:	fef43023          	sd	a5,-32(s0)
        if ((pte & PTE_V) && (pte & (PTE_R|PTE_W|PTE_X)) == 0) {
    80202570:	fe043783          	ld	a5,-32(s0)
    80202574:	8b85                	andi	a5,a5,1
    80202576:	cb95                	beqz	a5,802025aa <free_pagetable+0x5e>
    80202578:	fe043783          	ld	a5,-32(s0)
    8020257c:	8bb9                	andi	a5,a5,14
    8020257e:	e795                	bnez	a5,802025aa <free_pagetable+0x5e>
            pagetable_t child = (pagetable_t)PTE2PA(pte);
    80202580:	fe043783          	ld	a5,-32(s0)
    80202584:	83a9                	srli	a5,a5,0xa
    80202586:	07b2                	slli	a5,a5,0xc
    80202588:	fcf43c23          	sd	a5,-40(s0)
            free_pagetable(child);
    8020258c:	fd843503          	ld	a0,-40(s0)
    80202590:	00000097          	auipc	ra,0x0
    80202594:	fbc080e7          	jalr	-68(ra) # 8020254c <free_pagetable>
            pt[i] = 0;
    80202598:	fec42783          	lw	a5,-20(s0)
    8020259c:	078e                	slli	a5,a5,0x3
    8020259e:	fc843703          	ld	a4,-56(s0)
    802025a2:	97ba                	add	a5,a5,a4
    802025a4:	0007b023          	sd	zero,0(a5) # ffffffff80000000 <_itable_end+0xfffffffeffab03e0>
        if ((pte & PTE_V) && (pte & (PTE_R|PTE_W|PTE_X)) == 0) {
    802025a8:	a00d                	j	802025ca <free_pagetable+0x7e>
        } else if ((pte & PTE_V) && (pte & (PTE_R|PTE_W|PTE_X))) {
    802025aa:	fe043783          	ld	a5,-32(s0)
    802025ae:	8b85                	andi	a5,a5,1
    802025b0:	cf89                	beqz	a5,802025ca <free_pagetable+0x7e>
    802025b2:	fe043783          	ld	a5,-32(s0)
    802025b6:	8bb9                	andi	a5,a5,14
    802025b8:	cb89                	beqz	a5,802025ca <free_pagetable+0x7e>
            pt[i] = 0;
    802025ba:	fec42783          	lw	a5,-20(s0)
    802025be:	078e                	slli	a5,a5,0x3
    802025c0:	fc843703          	ld	a4,-56(s0)
    802025c4:	97ba                	add	a5,a5,a4
    802025c6:	0007b023          	sd	zero,0(a5)
    for (int i = 0; i < 512; i++) {
    802025ca:	fec42783          	lw	a5,-20(s0)
    802025ce:	2785                	addiw	a5,a5,1
    802025d0:	fef42623          	sw	a5,-20(s0)
    802025d4:	fec42783          	lw	a5,-20(s0)
    802025d8:	0007871b          	sext.w	a4,a5
    802025dc:	1ff00793          	li	a5,511
    802025e0:	f6e7dfe3          	bge	a5,a4,8020255e <free_pagetable+0x12>
    free_page(pt);
    802025e4:	fc843503          	ld	a0,-56(s0)
    802025e8:	00001097          	auipc	ra,0x1
    802025ec:	29a080e7          	jalr	666(ra) # 80203882 <free_page>
}
    802025f0:	0001                	nop
    802025f2:	70e2                	ld	ra,56(sp)
    802025f4:	7442                	ld	s0,48(sp)
    802025f6:	6121                	addi	sp,sp,64
    802025f8:	8082                	ret

00000000802025fa <kvmmake>:
static pagetable_t kvmmake(void) {
    802025fa:	715d                	addi	sp,sp,-80
    802025fc:	e486                	sd	ra,72(sp)
    802025fe:	e0a2                	sd	s0,64(sp)
    80202600:	0880                	addi	s0,sp,80
    pagetable_t kpgtbl = create_pagetable();
    80202602:	00000097          	auipc	ra,0x0
    80202606:	b88080e7          	jalr	-1144(ra) # 8020218a <create_pagetable>
    8020260a:	fca43423          	sd	a0,-56(s0)
    if (!kpgtbl){
    8020260e:	fc843783          	ld	a5,-56(s0)
    80202612:	eb89                	bnez	a5,80202624 <kvmmake+0x2a>
        panic("kvmmake: alloc failed");
    80202614:	00018517          	auipc	a0,0x18
    80202618:	73450513          	addi	a0,a0,1844 # 8021ad48 <user_test_table+0x1c0>
    8020261c:	00000097          	auipc	ra,0x0
    80202620:	884080e7          	jalr	-1916(ra) # 80201ea0 <panic>
	for (uint64 pa = KERNBASE; pa < PHYSTOP; pa += PGSIZE) {
    80202624:	4785                	li	a5,1
    80202626:	07fe                	slli	a5,a5,0x1f
    80202628:	fef43423          	sd	a5,-24(s0)
    8020262c:	a8a1                	j	80202684 <kvmmake+0x8a>
        int perm = PTE_R | PTE_W;
    8020262e:	4799                	li	a5,6
    80202630:	fef42223          	sw	a5,-28(s0)
        if (pa < (uint64)etext)
    80202634:	0000e797          	auipc	a5,0xe
    80202638:	9cc78793          	addi	a5,a5,-1588 # 80210000 <etext>
    8020263c:	fe843703          	ld	a4,-24(s0)
    80202640:	00f77563          	bgeu	a4,a5,8020264a <kvmmake+0x50>
            perm = PTE_R | PTE_X;
    80202644:	47a9                	li	a5,10
    80202646:	fef42223          	sw	a5,-28(s0)
        if (map_page(kpgtbl, pa, pa, perm) != 0)
    8020264a:	fe442783          	lw	a5,-28(s0)
    8020264e:	86be                	mv	a3,a5
    80202650:	fe843603          	ld	a2,-24(s0)
    80202654:	fe843583          	ld	a1,-24(s0)
    80202658:	fc843503          	ld	a0,-56(s0)
    8020265c:	00000097          	auipc	ra,0x0
    80202660:	d7c080e7          	jalr	-644(ra) # 802023d8 <map_page>
    80202664:	87aa                	mv	a5,a0
    80202666:	cb89                	beqz	a5,80202678 <kvmmake+0x7e>
            panic("kvmmake: heap map failed");
    80202668:	00018517          	auipc	a0,0x18
    8020266c:	6f850513          	addi	a0,a0,1784 # 8021ad60 <user_test_table+0x1d8>
    80202670:	00000097          	auipc	ra,0x0
    80202674:	830080e7          	jalr	-2000(ra) # 80201ea0 <panic>
	for (uint64 pa = KERNBASE; pa < PHYSTOP; pa += PGSIZE) {
    80202678:	fe843703          	ld	a4,-24(s0)
    8020267c:	6785                	lui	a5,0x1
    8020267e:	97ba                	add	a5,a5,a4
    80202680:	fef43423          	sd	a5,-24(s0)
    80202684:	fe843703          	ld	a4,-24(s0)
    80202688:	47c5                	li	a5,17
    8020268a:	07ee                	slli	a5,a5,0x1b
    8020268c:	faf761e3          	bltu	a4,a5,8020262e <kvmmake+0x34>
    if (map_page(kpgtbl, UART0, UART0, PTE_R | PTE_W) != 0)
    80202690:	4699                	li	a3,6
    80202692:	10000637          	lui	a2,0x10000
    80202696:	100005b7          	lui	a1,0x10000
    8020269a:	fc843503          	ld	a0,-56(s0)
    8020269e:	00000097          	auipc	ra,0x0
    802026a2:	d3a080e7          	jalr	-710(ra) # 802023d8 <map_page>
    802026a6:	87aa                	mv	a5,a0
    802026a8:	cb89                	beqz	a5,802026ba <kvmmake+0xc0>
        panic("kvmmake: uart map failed");
    802026aa:	00018517          	auipc	a0,0x18
    802026ae:	6d650513          	addi	a0,a0,1750 # 8021ad80 <user_test_table+0x1f8>
    802026b2:	fffff097          	auipc	ra,0xfffff
    802026b6:	7ee080e7          	jalr	2030(ra) # 80201ea0 <panic>
    for (uint64 pa = PLIC; pa < PLIC + 0x400000; pa += PGSIZE) {
    802026ba:	0c0007b7          	lui	a5,0xc000
    802026be:	fcf43c23          	sd	a5,-40(s0)
    802026c2:	a825                	j	802026fa <kvmmake+0x100>
        if (map_page(kpgtbl, pa, pa, PTE_R | PTE_W) != 0)
    802026c4:	4699                	li	a3,6
    802026c6:	fd843603          	ld	a2,-40(s0)
    802026ca:	fd843583          	ld	a1,-40(s0)
    802026ce:	fc843503          	ld	a0,-56(s0)
    802026d2:	00000097          	auipc	ra,0x0
    802026d6:	d06080e7          	jalr	-762(ra) # 802023d8 <map_page>
    802026da:	87aa                	mv	a5,a0
    802026dc:	cb89                	beqz	a5,802026ee <kvmmake+0xf4>
            panic("kvmmake: plic map failed");
    802026de:	00018517          	auipc	a0,0x18
    802026e2:	6c250513          	addi	a0,a0,1730 # 8021ada0 <user_test_table+0x218>
    802026e6:	fffff097          	auipc	ra,0xfffff
    802026ea:	7ba080e7          	jalr	1978(ra) # 80201ea0 <panic>
    for (uint64 pa = PLIC; pa < PLIC + 0x400000; pa += PGSIZE) {
    802026ee:	fd843703          	ld	a4,-40(s0)
    802026f2:	6785                	lui	a5,0x1
    802026f4:	97ba                	add	a5,a5,a4
    802026f6:	fcf43c23          	sd	a5,-40(s0)
    802026fa:	fd843703          	ld	a4,-40(s0)
    802026fe:	0c4007b7          	lui	a5,0xc400
    80202702:	fcf761e3          	bltu	a4,a5,802026c4 <kvmmake+0xca>
    for (uint64 pa = CLINT; pa < CLINT + 0x10000; pa += PGSIZE) {
    80202706:	020007b7          	lui	a5,0x2000
    8020270a:	fcf43823          	sd	a5,-48(s0)
    8020270e:	a825                	j	80202746 <kvmmake+0x14c>
        if (map_page(kpgtbl, pa, pa, PTE_R | PTE_W) != 0)
    80202710:	4699                	li	a3,6
    80202712:	fd043603          	ld	a2,-48(s0)
    80202716:	fd043583          	ld	a1,-48(s0)
    8020271a:	fc843503          	ld	a0,-56(s0)
    8020271e:	00000097          	auipc	ra,0x0
    80202722:	cba080e7          	jalr	-838(ra) # 802023d8 <map_page>
    80202726:	87aa                	mv	a5,a0
    80202728:	cb89                	beqz	a5,8020273a <kvmmake+0x140>
            panic("kvmmake: clint map failed");
    8020272a:	00018517          	auipc	a0,0x18
    8020272e:	69650513          	addi	a0,a0,1686 # 8021adc0 <user_test_table+0x238>
    80202732:	fffff097          	auipc	ra,0xfffff
    80202736:	76e080e7          	jalr	1902(ra) # 80201ea0 <panic>
    for (uint64 pa = CLINT; pa < CLINT + 0x10000; pa += PGSIZE) {
    8020273a:	fd043703          	ld	a4,-48(s0)
    8020273e:	6785                	lui	a5,0x1
    80202740:	97ba                	add	a5,a5,a4
    80202742:	fcf43823          	sd	a5,-48(s0)
    80202746:	fd043703          	ld	a4,-48(s0)
    8020274a:	020107b7          	lui	a5,0x2010
    8020274e:	fcf761e3          	bltu	a4,a5,80202710 <kvmmake+0x116>
    if (map_page(kpgtbl, VIRTIO0, VIRTIO0, PTE_R | PTE_W) != 0){
    80202752:	4699                	li	a3,6
    80202754:	10001637          	lui	a2,0x10001
    80202758:	100015b7          	lui	a1,0x10001
    8020275c:	fc843503          	ld	a0,-56(s0)
    80202760:	00000097          	auipc	ra,0x0
    80202764:	c78080e7          	jalr	-904(ra) # 802023d8 <map_page>
    80202768:	87aa                	mv	a5,a0
    8020276a:	cb89                	beqz	a5,8020277c <kvmmake+0x182>
    	panic("kvmmake: virtio map failed");
    8020276c:	00018517          	auipc	a0,0x18
    80202770:	67450513          	addi	a0,a0,1652 # 8021ade0 <user_test_table+0x258>
    80202774:	fffff097          	auipc	ra,0xfffff
    80202778:	72c080e7          	jalr	1836(ra) # 80201ea0 <panic>
	void *tramp_phys = alloc_page();
    8020277c:	00001097          	auipc	ra,0x1
    80202780:	09a080e7          	jalr	154(ra) # 80203816 <alloc_page>
    80202784:	fca43023          	sd	a0,-64(s0)
	if (!tramp_phys){
    80202788:	fc043783          	ld	a5,-64(s0)
    8020278c:	eb89                	bnez	a5,8020279e <kvmmake+0x1a4>
		panic("kvmmake: alloc trampoline page failed");
    8020278e:	00018517          	auipc	a0,0x18
    80202792:	67250513          	addi	a0,a0,1650 # 8021ae00 <user_test_table+0x278>
    80202796:	fffff097          	auipc	ra,0xfffff
    8020279a:	70a080e7          	jalr	1802(ra) # 80201ea0 <panic>
	memcpy(tramp_phys, trampoline, PGSIZE);
    8020279e:	6605                	lui	a2,0x1
    802027a0:	00003597          	auipc	a1,0x3
    802027a4:	81058593          	addi	a1,a1,-2032 # 80204fb0 <trampoline>
    802027a8:	fc043503          	ld	a0,-64(s0)
    802027ac:	00000097          	auipc	ra,0x0
    802027b0:	8da080e7          	jalr	-1830(ra) # 80202086 <memcpy>
	void *trapframe_phys = alloc_page();
    802027b4:	00001097          	auipc	ra,0x1
    802027b8:	062080e7          	jalr	98(ra) # 80203816 <alloc_page>
    802027bc:	faa43c23          	sd	a0,-72(s0)
	if (!trapframe_phys){
    802027c0:	fb843783          	ld	a5,-72(s0)
    802027c4:	eb89                	bnez	a5,802027d6 <kvmmake+0x1dc>
		panic("kvmmake: alloc trapframe page failed");
    802027c6:	00018517          	auipc	a0,0x18
    802027ca:	66250513          	addi	a0,a0,1634 # 8021ae28 <user_test_table+0x2a0>
    802027ce:	fffff097          	auipc	ra,0xfffff
    802027d2:	6d2080e7          	jalr	1746(ra) # 80201ea0 <panic>
	memset(trapframe_phys, 0, PGSIZE);
    802027d6:	6605                	lui	a2,0x1
    802027d8:	4581                	li	a1,0
    802027da:	fb843503          	ld	a0,-72(s0)
    802027de:	fffff097          	auipc	ra,0xfffff
    802027e2:	79c080e7          	jalr	1948(ra) # 80201f7a <memset>
	if (map_page(kpgtbl, TRAMPOLINE, (uint64)tramp_phys, PTE_R | PTE_X) != 0){
    802027e6:	fc043783          	ld	a5,-64(s0)
    802027ea:	46a9                	li	a3,10
    802027ec:	863e                	mv	a2,a5
    802027ee:	75fd                	lui	a1,0xfffff
    802027f0:	fc843503          	ld	a0,-56(s0)
    802027f4:	00000097          	auipc	ra,0x0
    802027f8:	be4080e7          	jalr	-1052(ra) # 802023d8 <map_page>
    802027fc:	87aa                	mv	a5,a0
    802027fe:	cb89                	beqz	a5,80202810 <kvmmake+0x216>
		panic("kvmmake: trampoline map failed");
    80202800:	00018517          	auipc	a0,0x18
    80202804:	65050513          	addi	a0,a0,1616 # 8021ae50 <user_test_table+0x2c8>
    80202808:	fffff097          	auipc	ra,0xfffff
    8020280c:	698080e7          	jalr	1688(ra) # 80201ea0 <panic>
	if (map_page(kpgtbl, TRAPFRAME, (uint64)trapframe_phys, PTE_R | PTE_W) != 0){
    80202810:	fb843783          	ld	a5,-72(s0)
    80202814:	4699                	li	a3,6
    80202816:	863e                	mv	a2,a5
    80202818:	75f9                	lui	a1,0xffffe
    8020281a:	fc843503          	ld	a0,-56(s0)
    8020281e:	00000097          	auipc	ra,0x0
    80202822:	bba080e7          	jalr	-1094(ra) # 802023d8 <map_page>
    80202826:	87aa                	mv	a5,a0
    80202828:	cb89                	beqz	a5,8020283a <kvmmake+0x240>
		panic("kvmmake: trapframe map failed");
    8020282a:	00018517          	auipc	a0,0x18
    8020282e:	64650513          	addi	a0,a0,1606 # 8021ae70 <user_test_table+0x2e8>
    80202832:	fffff097          	auipc	ra,0xfffff
    80202836:	66e080e7          	jalr	1646(ra) # 80201ea0 <panic>
	trampoline_phys_addr = (uint64)tramp_phys;
    8020283a:	fc043703          	ld	a4,-64(s0)
    8020283e:	00042797          	auipc	a5,0x42
    80202842:	8ba78793          	addi	a5,a5,-1862 # 802440f8 <trampoline_phys_addr>
    80202846:	e398                	sd	a4,0(a5)
	trapframe_phys_addr = (uint64)trapframe_phys;
    80202848:	fb843703          	ld	a4,-72(s0)
    8020284c:	00042797          	auipc	a5,0x42
    80202850:	8b478793          	addi	a5,a5,-1868 # 80244100 <trapframe_phys_addr>
    80202854:	e398                	sd	a4,0(a5)
	debug("trampoline_phy_addr = %lx\n",trampoline_phys_addr);
    80202856:	00042797          	auipc	a5,0x42
    8020285a:	8a278793          	addi	a5,a5,-1886 # 802440f8 <trampoline_phys_addr>
    8020285e:	639c                	ld	a5,0(a5)
    80202860:	85be                	mv	a1,a5
    80202862:	00018517          	auipc	a0,0x18
    80202866:	62e50513          	addi	a0,a0,1582 # 8021ae90 <user_test_table+0x308>
    8020286a:	fffff097          	auipc	ra,0xfffff
    8020286e:	612080e7          	jalr	1554(ra) # 80201e7c <debug>
	debug("trapframe_phys_addr = %lx\n",trapframe_phys_addr);
    80202872:	00042797          	auipc	a5,0x42
    80202876:	88e78793          	addi	a5,a5,-1906 # 80244100 <trapframe_phys_addr>
    8020287a:	639c                	ld	a5,0(a5)
    8020287c:	85be                	mv	a1,a5
    8020287e:	00018517          	auipc	a0,0x18
    80202882:	63250513          	addi	a0,a0,1586 # 8021aeb0 <user_test_table+0x328>
    80202886:	fffff097          	auipc	ra,0xfffff
    8020288a:	5f6080e7          	jalr	1526(ra) # 80201e7c <debug>
    return kpgtbl;
    8020288e:	fc843783          	ld	a5,-56(s0)
}
    80202892:	853e                	mv	a0,a5
    80202894:	60a6                	ld	ra,72(sp)
    80202896:	6406                	ld	s0,64(sp)
    80202898:	6161                	addi	sp,sp,80
    8020289a:	8082                	ret

000000008020289c <w_satp>:
static inline void w_satp(uint64 x) {
    8020289c:	1101                	addi	sp,sp,-32
    8020289e:	ec22                	sd	s0,24(sp)
    802028a0:	1000                	addi	s0,sp,32
    802028a2:	fea43423          	sd	a0,-24(s0)
    asm volatile("csrw satp, %0" : : "r"(x));
    802028a6:	fe843783          	ld	a5,-24(s0)
    802028aa:	18079073          	csrw	satp,a5
}
    802028ae:	0001                	nop
    802028b0:	6462                	ld	s0,24(sp)
    802028b2:	6105                	addi	sp,sp,32
    802028b4:	8082                	ret

00000000802028b6 <sfence_vma>:
inline void sfence_vma(void) {
    802028b6:	1141                	addi	sp,sp,-16
    802028b8:	e422                	sd	s0,8(sp)
    802028ba:	0800                	addi	s0,sp,16
    asm volatile("sfence.vma zero, zero");
    802028bc:	12000073          	sfence.vma
}
    802028c0:	0001                	nop
    802028c2:	6422                	ld	s0,8(sp)
    802028c4:	0141                	addi	sp,sp,16
    802028c6:	8082                	ret

00000000802028c8 <kvminit>:
void kvminit(void) {
    802028c8:	1141                	addi	sp,sp,-16
    802028ca:	e406                	sd	ra,8(sp)
    802028cc:	e022                	sd	s0,0(sp)
    802028ce:	0800                	addi	s0,sp,16
    kernel_pagetable = kvmmake();
    802028d0:	00000097          	auipc	ra,0x0
    802028d4:	d2a080e7          	jalr	-726(ra) # 802025fa <kvmmake>
    802028d8:	872a                	mv	a4,a0
    802028da:	00042797          	auipc	a5,0x42
    802028de:	81678793          	addi	a5,a5,-2026 # 802440f0 <kernel_pagetable>
    802028e2:	e398                	sd	a4,0(a5)
    sfence_vma();
    802028e4:	00000097          	auipc	ra,0x0
    802028e8:	fd2080e7          	jalr	-46(ra) # 802028b6 <sfence_vma>
    w_satp(MAKE_SATP(kernel_pagetable));
    802028ec:	00042797          	auipc	a5,0x42
    802028f0:	80478793          	addi	a5,a5,-2044 # 802440f0 <kernel_pagetable>
    802028f4:	639c                	ld	a5,0(a5)
    802028f6:	00c7d713          	srli	a4,a5,0xc
    802028fa:	57fd                	li	a5,-1
    802028fc:	17fe                	slli	a5,a5,0x3f
    802028fe:	8fd9                	or	a5,a5,a4
    80202900:	853e                	mv	a0,a5
    80202902:	00000097          	auipc	ra,0x0
    80202906:	f9a080e7          	jalr	-102(ra) # 8020289c <w_satp>
    sfence_vma();
    8020290a:	00000097          	auipc	ra,0x0
    8020290e:	fac080e7          	jalr	-84(ra) # 802028b6 <sfence_vma>
    debug("[KVM] 内核分页已启用，satp=0x%lx\n", MAKE_SATP(kernel_pagetable));
    80202912:	00041797          	auipc	a5,0x41
    80202916:	7de78793          	addi	a5,a5,2014 # 802440f0 <kernel_pagetable>
    8020291a:	639c                	ld	a5,0(a5)
    8020291c:	00c7d713          	srli	a4,a5,0xc
    80202920:	57fd                	li	a5,-1
    80202922:	17fe                	slli	a5,a5,0x3f
    80202924:	8fd9                	or	a5,a5,a4
    80202926:	85be                	mv	a1,a5
    80202928:	00018517          	auipc	a0,0x18
    8020292c:	5a850513          	addi	a0,a0,1448 # 8021aed0 <user_test_table+0x348>
    80202930:	fffff097          	auipc	ra,0xfffff
    80202934:	54c080e7          	jalr	1356(ra) # 80201e7c <debug>
}
    80202938:	0001                	nop
    8020293a:	60a2                	ld	ra,8(sp)
    8020293c:	6402                	ld	s0,0(sp)
    8020293e:	0141                	addi	sp,sp,16
    80202940:	8082                	ret

0000000080202942 <get_current_pagetable>:
pagetable_t get_current_pagetable(void) {
    80202942:	1141                	addi	sp,sp,-16
    80202944:	e422                	sd	s0,8(sp)
    80202946:	0800                	addi	s0,sp,16
    return kernel_pagetable;  // 在没有进程时返回内核页表
    80202948:	00041797          	auipc	a5,0x41
    8020294c:	7a878793          	addi	a5,a5,1960 # 802440f0 <kernel_pagetable>
    80202950:	639c                	ld	a5,0(a5)
}
    80202952:	853e                	mv	a0,a5
    80202954:	6422                	ld	s0,8(sp)
    80202956:	0141                	addi	sp,sp,16
    80202958:	8082                	ret

000000008020295a <print_pagetable>:
void print_pagetable(pagetable_t pagetable, int level, uint64 va_base) {
    8020295a:	715d                	addi	sp,sp,-80
    8020295c:	e486                	sd	ra,72(sp)
    8020295e:	e0a2                	sd	s0,64(sp)
    80202960:	0880                	addi	s0,sp,80
    80202962:	fca43423          	sd	a0,-56(s0)
    80202966:	87ae                	mv	a5,a1
    80202968:	fac43c23          	sd	a2,-72(s0)
    8020296c:	fcf42223          	sw	a5,-60(s0)
    for (int i = 0; i < 512; i++) {
    80202970:	fe042623          	sw	zero,-20(s0)
    80202974:	a0c5                	j	80202a54 <print_pagetable+0xfa>
        pte_t pte = pagetable[i];
    80202976:	fec42783          	lw	a5,-20(s0)
    8020297a:	078e                	slli	a5,a5,0x3
    8020297c:	fc843703          	ld	a4,-56(s0)
    80202980:	97ba                	add	a5,a5,a4
    80202982:	639c                	ld	a5,0(a5)
    80202984:	fef43023          	sd	a5,-32(s0)
        if (pte & PTE_V) {
    80202988:	fe043783          	ld	a5,-32(s0)
    8020298c:	8b85                	andi	a5,a5,1
    8020298e:	cfd5                	beqz	a5,80202a4a <print_pagetable+0xf0>
            uint64 pa = PTE2PA(pte);
    80202990:	fe043783          	ld	a5,-32(s0)
    80202994:	83a9                	srli	a5,a5,0xa
    80202996:	07b2                	slli	a5,a5,0xc
    80202998:	fcf43c23          	sd	a5,-40(s0)
            uint64 va = va_base + (i << (12 + 9 * (2 - level)));
    8020299c:	4789                	li	a5,2
    8020299e:	fc442703          	lw	a4,-60(s0)
    802029a2:	9f99                	subw	a5,a5,a4
    802029a4:	2781                	sext.w	a5,a5
    802029a6:	873e                	mv	a4,a5
    802029a8:	87ba                	mv	a5,a4
    802029aa:	0037979b          	slliw	a5,a5,0x3
    802029ae:	9fb9                	addw	a5,a5,a4
    802029b0:	2781                	sext.w	a5,a5
    802029b2:	27b1                	addiw	a5,a5,12
    802029b4:	2781                	sext.w	a5,a5
    802029b6:	fec42703          	lw	a4,-20(s0)
    802029ba:	00f717bb          	sllw	a5,a4,a5
    802029be:	2781                	sext.w	a5,a5
    802029c0:	873e                	mv	a4,a5
    802029c2:	fb843783          	ld	a5,-72(s0)
    802029c6:	97ba                	add	a5,a5,a4
    802029c8:	fcf43823          	sd	a5,-48(s0)
            for (int l = 0; l < level; l++) printf("  "); // 缩进
    802029cc:	fe042423          	sw	zero,-24(s0)
    802029d0:	a831                	j	802029ec <print_pagetable+0x92>
    802029d2:	00018517          	auipc	a0,0x18
    802029d6:	52e50513          	addi	a0,a0,1326 # 8021af00 <user_test_table+0x378>
    802029da:	fffff097          	auipc	ra,0xfffff
    802029de:	8a4080e7          	jalr	-1884(ra) # 8020127e <printf>
    802029e2:	fe842783          	lw	a5,-24(s0)
    802029e6:	2785                	addiw	a5,a5,1
    802029e8:	fef42423          	sw	a5,-24(s0)
    802029ec:	fe842783          	lw	a5,-24(s0)
    802029f0:	873e                	mv	a4,a5
    802029f2:	fc442783          	lw	a5,-60(s0)
    802029f6:	2701                	sext.w	a4,a4
    802029f8:	2781                	sext.w	a5,a5
    802029fa:	fcf74ce3          	blt	a4,a5,802029d2 <print_pagetable+0x78>
            printf("L%d[%3d] VA:0x%lx -> PA:0x%lx flags:0x%lx\n", level, i, va, pa, pte & 0x3FF);
    802029fe:	fe043783          	ld	a5,-32(s0)
    80202a02:	3ff7f793          	andi	a5,a5,1023
    80202a06:	fec42603          	lw	a2,-20(s0)
    80202a0a:	fc442583          	lw	a1,-60(s0)
    80202a0e:	fd843703          	ld	a4,-40(s0)
    80202a12:	fd043683          	ld	a3,-48(s0)
    80202a16:	00018517          	auipc	a0,0x18
    80202a1a:	4f250513          	addi	a0,a0,1266 # 8021af08 <user_test_table+0x380>
    80202a1e:	fffff097          	auipc	ra,0xfffff
    80202a22:	860080e7          	jalr	-1952(ra) # 8020127e <printf>
            if ((pte & (PTE_R | PTE_W | PTE_X)) == 0) { // 不是叶子
    80202a26:	fe043783          	ld	a5,-32(s0)
    80202a2a:	8bb9                	andi	a5,a5,14
    80202a2c:	ef99                	bnez	a5,80202a4a <print_pagetable+0xf0>
                print_pagetable((pagetable_t)pa, level + 1, va);
    80202a2e:	fd843783          	ld	a5,-40(s0)
    80202a32:	fc442703          	lw	a4,-60(s0)
    80202a36:	2705                	addiw	a4,a4,1
    80202a38:	2701                	sext.w	a4,a4
    80202a3a:	fd043603          	ld	a2,-48(s0)
    80202a3e:	85ba                	mv	a1,a4
    80202a40:	853e                	mv	a0,a5
    80202a42:	00000097          	auipc	ra,0x0
    80202a46:	f18080e7          	jalr	-232(ra) # 8020295a <print_pagetable>
    for (int i = 0; i < 512; i++) {
    80202a4a:	fec42783          	lw	a5,-20(s0)
    80202a4e:	2785                	addiw	a5,a5,1
    80202a50:	fef42623          	sw	a5,-20(s0)
    80202a54:	fec42783          	lw	a5,-20(s0)
    80202a58:	0007871b          	sext.w	a4,a5
    80202a5c:	1ff00793          	li	a5,511
    80202a60:	f0e7dbe3          	bge	a5,a4,80202976 <print_pagetable+0x1c>
}
    80202a64:	0001                	nop
    80202a66:	0001                	nop
    80202a68:	60a6                	ld	ra,72(sp)
    80202a6a:	6406                	ld	s0,64(sp)
    80202a6c:	6161                	addi	sp,sp,80
    80202a6e:	8082                	ret

0000000080202a70 <handle_page_fault>:
int handle_page_fault(uint64 va, int type) {
    80202a70:	711d                	addi	sp,sp,-96
    80202a72:	ec86                	sd	ra,88(sp)
    80202a74:	e8a2                	sd	s0,80(sp)
    80202a76:	1080                	addi	s0,sp,96
    80202a78:	faa43423          	sd	a0,-88(s0)
    80202a7c:	87ae                	mv	a5,a1
    80202a7e:	faf42223          	sw	a5,-92(s0)
    debug("[PAGE FAULT] 处理地址 0x%lx, 类型 %d\n", va, type);
    80202a82:	fa442783          	lw	a5,-92(s0)
    80202a86:	863e                	mv	a2,a5
    80202a88:	fa843583          	ld	a1,-88(s0)
    80202a8c:	00018517          	auipc	a0,0x18
    80202a90:	4ac50513          	addi	a0,a0,1196 # 8021af38 <user_test_table+0x3b0>
    80202a94:	fffff097          	auipc	ra,0xfffff
    80202a98:	3e8080e7          	jalr	1000(ra) # 80201e7c <debug>
    if (va == 0) {
    80202a9c:	fa843783          	ld	a5,-88(s0)
    80202aa0:	e38d                	bnez	a5,80202ac2 <handle_page_fault+0x52>
        debug("[PAGE FAULT] 检测到空指针访问！\n");
    80202aa2:	00018517          	auipc	a0,0x18
    80202aa6:	4c650513          	addi	a0,a0,1222 # 8021af68 <user_test_table+0x3e0>
    80202aaa:	fffff097          	auipc	ra,0xfffff
    80202aae:	3d2080e7          	jalr	978(ra) # 80201e7c <debug>
        panic("Null pointer dereference");
    80202ab2:	00018517          	auipc	a0,0x18
    80202ab6:	4e650513          	addi	a0,a0,1254 # 8021af98 <user_test_table+0x410>
    80202aba:	fffff097          	auipc	ra,0xfffff
    80202abe:	3e6080e7          	jalr	998(ra) # 80201ea0 <panic>
    if (va < PGSIZE) {
    80202ac2:	fa843703          	ld	a4,-88(s0)
    80202ac6:	6785                	lui	a5,0x1
    80202ac8:	02f77463          	bgeu	a4,a5,80202af0 <handle_page_fault+0x80>
        debug("[PAGE FAULT] 检测到低地址访问 (可能是空指针偏移)！va=0x%lx\n", va);
    80202acc:	fa843583          	ld	a1,-88(s0)
    80202ad0:	00018517          	auipc	a0,0x18
    80202ad4:	4e850513          	addi	a0,a0,1256 # 8021afb8 <user_test_table+0x430>
    80202ad8:	fffff097          	auipc	ra,0xfffff
    80202adc:	3a4080e7          	jalr	932(ra) # 80201e7c <debug>
        panic("Low address access (likely null pointer offset)");
    80202ae0:	00018517          	auipc	a0,0x18
    80202ae4:	52850513          	addi	a0,a0,1320 # 8021b008 <user_test_table+0x480>
    80202ae8:	fffff097          	auipc	ra,0xfffff
    80202aec:	3b8080e7          	jalr	952(ra) # 80201ea0 <panic>
    uint64 page_va = (va / PGSIZE) * PGSIZE;
    80202af0:	fa843703          	ld	a4,-88(s0)
    80202af4:	77fd                	lui	a5,0xfffff
    80202af6:	8ff9                	and	a5,a5,a4
    80202af8:	fcf43823          	sd	a5,-48(s0)
    if (page_va >= MAXVA) {
    80202afc:	fd043703          	ld	a4,-48(s0)
    80202b00:	57fd                	li	a5,-1
    80202b02:	83e5                	srli	a5,a5,0x19
    80202b04:	02e7f263          	bgeu	a5,a4,80202b28 <handle_page_fault+0xb8>
        debug("[PAGE FAULT] 虚拟地址超出范围\n");
    80202b08:	00018517          	auipc	a0,0x18
    80202b0c:	53050513          	addi	a0,a0,1328 # 8021b038 <user_test_table+0x4b0>
    80202b10:	fffff097          	auipc	ra,0xfffff
    80202b14:	36c080e7          	jalr	876(ra) # 80201e7c <debug>
        panic("Virtual address out of range");
    80202b18:	00018517          	auipc	a0,0x18
    80202b1c:	54850513          	addi	a0,a0,1352 # 8021b060 <user_test_table+0x4d8>
    80202b20:	fffff097          	auipc	ra,0xfffff
    80202b24:	380080e7          	jalr	896(ra) # 80201ea0 <panic>
    struct proc *p = myproc();
    80202b28:	00002097          	auipc	ra,0x2
    80202b2c:	756080e7          	jalr	1878(ra) # 8020527e <myproc>
    80202b30:	fca43423          	sd	a0,-56(s0)
    pagetable_t pt = kernel_pagetable;
    80202b34:	00041797          	auipc	a5,0x41
    80202b38:	5bc78793          	addi	a5,a5,1468 # 802440f0 <kernel_pagetable>
    80202b3c:	639c                	ld	a5,0(a5)
    80202b3e:	fef43423          	sd	a5,-24(s0)
    int is_user = 0;
    80202b42:	fe042223          	sw	zero,-28(s0)
    if (p && p->pagetable && p->is_user) {
    80202b46:	fc843783          	ld	a5,-56(s0)
    80202b4a:	c395                	beqz	a5,80202b6e <handle_page_fault+0xfe>
    80202b4c:	fc843783          	ld	a5,-56(s0)
    80202b50:	63fc                	ld	a5,192(a5)
    80202b52:	cf91                	beqz	a5,80202b6e <handle_page_fault+0xfe>
    80202b54:	fc843783          	ld	a5,-56(s0)
    80202b58:	0b07a783          	lw	a5,176(a5)
    80202b5c:	cb89                	beqz	a5,80202b6e <handle_page_fault+0xfe>
        pt = p->pagetable;
    80202b5e:	fc843783          	ld	a5,-56(s0)
    80202b62:	63fc                	ld	a5,192(a5)
    80202b64:	fef43423          	sd	a5,-24(s0)
        is_user = 1;
    80202b68:	4785                	li	a5,1
    80202b6a:	fef42223          	sw	a5,-28(s0)
    if (is_user && va >= 0x80000000 && va != TRAMPOLINE && va != TRAPFRAME) {
    80202b6e:	fe442783          	lw	a5,-28(s0)
    80202b72:	2781                	sext.w	a5,a5
    80202b74:	c7a9                	beqz	a5,80202bbe <handle_page_fault+0x14e>
    80202b76:	fa843703          	ld	a4,-88(s0)
    80202b7a:	800007b7          	lui	a5,0x80000
    80202b7e:	fff7c793          	not	a5,a5
    80202b82:	02e7fe63          	bgeu	a5,a4,80202bbe <handle_page_fault+0x14e>
    80202b86:	fa843703          	ld	a4,-88(s0)
    80202b8a:	77fd                	lui	a5,0xfffff
    80202b8c:	02f70963          	beq	a4,a5,80202bbe <handle_page_fault+0x14e>
    80202b90:	fa843703          	ld	a4,-88(s0)
    80202b94:	77f9                	lui	a5,0xffffe
    80202b96:	02f70463          	beq	a4,a5,80202bbe <handle_page_fault+0x14e>
        debug("[PAGE FAULT] 用户进程试图访问内核空间！va=0x%lx\n", va);
    80202b9a:	fa843583          	ld	a1,-88(s0)
    80202b9e:	00018517          	auipc	a0,0x18
    80202ba2:	4e250513          	addi	a0,a0,1250 # 8021b080 <user_test_table+0x4f8>
    80202ba6:	fffff097          	auipc	ra,0xfffff
    80202baa:	2d6080e7          	jalr	726(ra) # 80201e7c <debug>
        panic("User process accessing kernel space");
    80202bae:	00018517          	auipc	a0,0x18
    80202bb2:	51250513          	addi	a0,a0,1298 # 8021b0c0 <user_test_table+0x538>
    80202bb6:	fffff097          	auipc	ra,0xfffff
    80202bba:	2ea080e7          	jalr	746(ra) # 80201ea0 <panic>
    pte_t *pte = walk_lookup(pt, page_va);
    80202bbe:	fd043583          	ld	a1,-48(s0)
    80202bc2:	fe843503          	ld	a0,-24(s0)
    80202bc6:	fffff097          	auipc	ra,0xfffff
    80202bca:	600080e7          	jalr	1536(ra) # 802021c6 <walk_lookup>
    80202bce:	fca43023          	sd	a0,-64(s0)
    if (pte && (*pte & PTE_V)) {
    80202bd2:	fc043783          	ld	a5,-64(s0)
    80202bd6:	10078a63          	beqz	a5,80202cea <handle_page_fault+0x27a>
    80202bda:	fc043783          	ld	a5,-64(s0)
    80202bde:	639c                	ld	a5,0(a5)
    80202be0:	8b85                	andi	a5,a5,1
    80202be2:	10078463          	beqz	a5,80202cea <handle_page_fault+0x27a>
        int need_perm = 0;
    80202be6:	fe042023          	sw	zero,-32(s0)
        if (type == 1) need_perm = PTE_X | PTE_R;  // 指令访问
    80202bea:	fa442783          	lw	a5,-92(s0)
    80202bee:	0007871b          	sext.w	a4,a5
    80202bf2:	4785                	li	a5,1
    80202bf4:	00f71663          	bne	a4,a5,80202c00 <handle_page_fault+0x190>
    80202bf8:	47a9                	li	a5,10
    80202bfa:	fef42023          	sw	a5,-32(s0)
    80202bfe:	a035                	j	80202c2a <handle_page_fault+0x1ba>
        else if (type == 2) need_perm = PTE_R;     // 读数据
    80202c00:	fa442783          	lw	a5,-92(s0)
    80202c04:	0007871b          	sext.w	a4,a5
    80202c08:	4789                	li	a5,2
    80202c0a:	00f71663          	bne	a4,a5,80202c16 <handle_page_fault+0x1a6>
    80202c0e:	4789                	li	a5,2
    80202c10:	fef42023          	sw	a5,-32(s0)
    80202c14:	a819                	j	80202c2a <handle_page_fault+0x1ba>
        else if (type == 3) need_perm = PTE_R | PTE_W;  // 写数据
    80202c16:	fa442783          	lw	a5,-92(s0)
    80202c1a:	0007871b          	sext.w	a4,a5
    80202c1e:	478d                	li	a5,3
    80202c20:	00f71563          	bne	a4,a5,80202c2a <handle_page_fault+0x1ba>
    80202c24:	4799                	li	a5,6
    80202c26:	fef42023          	sw	a5,-32(s0)
        int current_perm = *pte & (PTE_R | PTE_W | PTE_X);
    80202c2a:	fc043783          	ld	a5,-64(s0)
    80202c2e:	639c                	ld	a5,0(a5)
    80202c30:	2781                	sext.w	a5,a5
    80202c32:	8bb9                	andi	a5,a5,14
    80202c34:	faf42e23          	sw	a5,-68(s0)
        if ((current_perm & need_perm) != need_perm) {
    80202c38:	fbc42783          	lw	a5,-68(s0)
    80202c3c:	873e                	mv	a4,a5
    80202c3e:	fe042783          	lw	a5,-32(s0)
    80202c42:	8ff9                	and	a5,a5,a4
    80202c44:	0007871b          	sext.w	a4,a5
    80202c48:	fe042783          	lw	a5,-32(s0)
    80202c4c:	2781                	sext.w	a5,a5
    80202c4e:	04e78d63          	beq	a5,a4,80202ca8 <handle_page_fault+0x238>
            *pte |= need_perm;
    80202c52:	fc043783          	ld	a5,-64(s0)
    80202c56:	6398                	ld	a4,0(a5)
    80202c58:	fe042783          	lw	a5,-32(s0)
    80202c5c:	8f5d                	or	a4,a4,a5
    80202c5e:	fc043783          	ld	a5,-64(s0)
    80202c62:	e398                	sd	a4,0(a5)
            if (is_user && page_va < 0x80000000) {
    80202c64:	fe442783          	lw	a5,-28(s0)
    80202c68:	2781                	sext.w	a5,a5
    80202c6a:	c38d                	beqz	a5,80202c8c <handle_page_fault+0x21c>
    80202c6c:	fd043703          	ld	a4,-48(s0)
    80202c70:	800007b7          	lui	a5,0x80000
    80202c74:	fff7c793          	not	a5,a5
    80202c78:	00e7ea63          	bltu	a5,a4,80202c8c <handle_page_fault+0x21c>
                *pte |= PTE_U;  // 用户空间需要PTE_U
    80202c7c:	fc043783          	ld	a5,-64(s0)
    80202c80:	639c                	ld	a5,0(a5)
    80202c82:	0107e713          	ori	a4,a5,16
    80202c86:	fc043783          	ld	a5,-64(s0)
    80202c8a:	e398                	sd	a4,0(a5)
            sfence_vma();
    80202c8c:	00000097          	auipc	ra,0x0
    80202c90:	c2a080e7          	jalr	-982(ra) # 802028b6 <sfence_vma>
            debug("[PAGE FAULT] 已更新页面权限\n");
    80202c94:	00018517          	auipc	a0,0x18
    80202c98:	45450513          	addi	a0,a0,1108 # 8021b0e8 <user_test_table+0x560>
    80202c9c:	fffff097          	auipc	ra,0xfffff
    80202ca0:	1e0080e7          	jalr	480(ra) # 80201e7c <debug>
            return 1;
    80202ca4:	4785                	li	a5,1
    80202ca6:	a279                	j	80202e34 <handle_page_fault+0x3c4>
        debug("[PAGE FAULT] 页面已映射且权限正确，可能是访问保护页或其他错误\n");
    80202ca8:	00018517          	auipc	a0,0x18
    80202cac:	46850513          	addi	a0,a0,1128 # 8021b110 <user_test_table+0x588>
    80202cb0:	fffff097          	auipc	ra,0xfffff
    80202cb4:	1cc080e7          	jalr	460(ra) # 80201e7c <debug>
        debug("[PAGE FAULT] pte=0x%lx, 当前权限=0x%x, 需要权限=0x%x\n", *pte, current_perm, need_perm);
    80202cb8:	fc043783          	ld	a5,-64(s0)
    80202cbc:	639c                	ld	a5,0(a5)
    80202cbe:	fe042683          	lw	a3,-32(s0)
    80202cc2:	fbc42703          	lw	a4,-68(s0)
    80202cc6:	863a                	mv	a2,a4
    80202cc8:	85be                	mv	a1,a5
    80202cca:	00018517          	auipc	a0,0x18
    80202cce:	49e50513          	addi	a0,a0,1182 # 8021b168 <user_test_table+0x5e0>
    80202cd2:	fffff097          	auipc	ra,0xfffff
    80202cd6:	1aa080e7          	jalr	426(ra) # 80201e7c <debug>
        panic("Unexpected page fault on valid mapping");
    80202cda:	00018517          	auipc	a0,0x18
    80202cde:	4ce50513          	addi	a0,a0,1230 # 8021b1a8 <user_test_table+0x620>
    80202ce2:	fffff097          	auipc	ra,0xfffff
    80202ce6:	1be080e7          	jalr	446(ra) # 80201ea0 <panic>
    if (va >= 0xffffff0000000000UL) {  // 非常高的地址，可能是指针计算错误
    80202cea:	fa843703          	ld	a4,-88(s0)
    80202cee:	57fd                	li	a5,-1
    80202cf0:	17a2                	slli	a5,a5,0x28
    80202cf2:	02f76463          	bltu	a4,a5,80202d1a <handle_page_fault+0x2aa>
        debug("[PAGE FAULT] 检测到异常高地址访问！va=0x%lx\n", va);
    80202cf6:	fa843583          	ld	a1,-88(s0)
    80202cfa:	00018517          	auipc	a0,0x18
    80202cfe:	4d650513          	addi	a0,a0,1238 # 8021b1d0 <user_test_table+0x648>
    80202d02:	fffff097          	auipc	ra,0xfffff
    80202d06:	17a080e7          	jalr	378(ra) # 80201e7c <debug>
        panic("Abnormally high address access");
    80202d0a:	00018517          	auipc	a0,0x18
    80202d0e:	4fe50513          	addi	a0,a0,1278 # 8021b208 <user_test_table+0x680>
    80202d12:	fffff097          	auipc	ra,0xfffff
    80202d16:	18e080e7          	jalr	398(ra) # 80201ea0 <panic>
    void* page = alloc_page();
    80202d1a:	00001097          	auipc	ra,0x1
    80202d1e:	afc080e7          	jalr	-1284(ra) # 80203816 <alloc_page>
    80202d22:	faa43823          	sd	a0,-80(s0)
    if (page == 0) {
    80202d26:	fb043783          	ld	a5,-80(s0)
    80202d2a:	e38d                	bnez	a5,80202d4c <handle_page_fault+0x2dc>
        debug("[PAGE FAULT] 内存不足，无法分配页面\n");
    80202d2c:	00018517          	auipc	a0,0x18
    80202d30:	4fc50513          	addi	a0,a0,1276 # 8021b228 <user_test_table+0x6a0>
    80202d34:	fffff097          	auipc	ra,0xfffff
    80202d38:	148080e7          	jalr	328(ra) # 80201e7c <debug>
        panic("Out of memory during page fault");
    80202d3c:	00018517          	auipc	a0,0x18
    80202d40:	51c50513          	addi	a0,a0,1308 # 8021b258 <user_test_table+0x6d0>
    80202d44:	fffff097          	auipc	ra,0xfffff
    80202d48:	15c080e7          	jalr	348(ra) # 80201ea0 <panic>
    memset(page, 0, PGSIZE);
    80202d4c:	6605                	lui	a2,0x1
    80202d4e:	4581                	li	a1,0
    80202d50:	fb043503          	ld	a0,-80(s0)
    80202d54:	fffff097          	auipc	ra,0xfffff
    80202d58:	226080e7          	jalr	550(ra) # 80201f7a <memset>
    int perm = 0;
    80202d5c:	fc042e23          	sw	zero,-36(s0)
    if (type == 1) perm = PTE_X | PTE_R;
    80202d60:	fa442783          	lw	a5,-92(s0)
    80202d64:	0007871b          	sext.w	a4,a5
    80202d68:	4785                	li	a5,1
    80202d6a:	00f71663          	bne	a4,a5,80202d76 <handle_page_fault+0x306>
    80202d6e:	47a9                	li	a5,10
    80202d70:	fcf42e23          	sw	a5,-36(s0)
    80202d74:	a035                	j	80202da0 <handle_page_fault+0x330>
    else if (type == 2) perm = PTE_R;
    80202d76:	fa442783          	lw	a5,-92(s0)
    80202d7a:	0007871b          	sext.w	a4,a5
    80202d7e:	4789                	li	a5,2
    80202d80:	00f71663          	bne	a4,a5,80202d8c <handle_page_fault+0x31c>
    80202d84:	4789                	li	a5,2
    80202d86:	fcf42e23          	sw	a5,-36(s0)
    80202d8a:	a819                	j	80202da0 <handle_page_fault+0x330>
    else if (type == 3) perm = PTE_R | PTE_W;
    80202d8c:	fa442783          	lw	a5,-92(s0)
    80202d90:	0007871b          	sext.w	a4,a5
    80202d94:	478d                	li	a5,3
    80202d96:	00f71563          	bne	a4,a5,80202da0 <handle_page_fault+0x330>
    80202d9a:	4799                	li	a5,6
    80202d9c:	fcf42e23          	sw	a5,-36(s0)
    if (is_user && page_va < 0x80000000) {
    80202da0:	fe442783          	lw	a5,-28(s0)
    80202da4:	2781                	sext.w	a5,a5
    80202da6:	cf99                	beqz	a5,80202dc4 <handle_page_fault+0x354>
    80202da8:	fd043703          	ld	a4,-48(s0)
    80202dac:	800007b7          	lui	a5,0x80000
    80202db0:	fff7c793          	not	a5,a5
    80202db4:	00e7e863          	bltu	a5,a4,80202dc4 <handle_page_fault+0x354>
        perm |= PTE_U;
    80202db8:	fdc42783          	lw	a5,-36(s0)
    80202dbc:	0107e793          	ori	a5,a5,16
    80202dc0:	fcf42e23          	sw	a5,-36(s0)
    if (map_page(pt, page_va, (uint64)page, perm) != 0) {
    80202dc4:	fb043783          	ld	a5,-80(s0)
    80202dc8:	fdc42703          	lw	a4,-36(s0)
    80202dcc:	86ba                	mv	a3,a4
    80202dce:	863e                	mv	a2,a5
    80202dd0:	fd043583          	ld	a1,-48(s0)
    80202dd4:	fe843503          	ld	a0,-24(s0)
    80202dd8:	fffff097          	auipc	ra,0xfffff
    80202ddc:	600080e7          	jalr	1536(ra) # 802023d8 <map_page>
    80202de0:	87aa                	mv	a5,a0
    80202de2:	c79d                	beqz	a5,80202e10 <handle_page_fault+0x3a0>
        free_page(page);
    80202de4:	fb043503          	ld	a0,-80(s0)
    80202de8:	00001097          	auipc	ra,0x1
    80202dec:	a9a080e7          	jalr	-1382(ra) # 80203882 <free_page>
        debug("[PAGE FAULT] 页面映射失败\n");
    80202df0:	00018517          	auipc	a0,0x18
    80202df4:	48850513          	addi	a0,a0,1160 # 8021b278 <user_test_table+0x6f0>
    80202df8:	fffff097          	auipc	ra,0xfffff
    80202dfc:	084080e7          	jalr	132(ra) # 80201e7c <debug>
        panic("Failed to map page during page fault");
    80202e00:	00018517          	auipc	a0,0x18
    80202e04:	4a050513          	addi	a0,a0,1184 # 8021b2a0 <user_test_table+0x718>
    80202e08:	fffff097          	auipc	ra,0xfffff
    80202e0c:	098080e7          	jalr	152(ra) # 80201ea0 <panic>
    sfence_vma();
    80202e10:	00000097          	auipc	ra,0x0
    80202e14:	aa6080e7          	jalr	-1370(ra) # 802028b6 <sfence_vma>
    debug("[PAGE FAULT] 成功分配并映射页面 0x%lx -> 0x%lx\n", page_va, (uint64)page);
    80202e18:	fb043783          	ld	a5,-80(s0)
    80202e1c:	863e                	mv	a2,a5
    80202e1e:	fd043583          	ld	a1,-48(s0)
    80202e22:	00018517          	auipc	a0,0x18
    80202e26:	4a650513          	addi	a0,a0,1190 # 8021b2c8 <user_test_table+0x740>
    80202e2a:	fffff097          	auipc	ra,0xfffff
    80202e2e:	052080e7          	jalr	82(ra) # 80201e7c <debug>
    return 1;
    80202e32:	4785                	li	a5,1
}
    80202e34:	853e                	mv	a0,a5
    80202e36:	60e6                	ld	ra,88(sp)
    80202e38:	6446                	ld	s0,80(sp)
    80202e3a:	6125                	addi	sp,sp,96
    80202e3c:	8082                	ret

0000000080202e3e <test_pagetable>:
void test_pagetable(void) {
    80202e3e:	7155                	addi	sp,sp,-208
    80202e40:	e586                	sd	ra,200(sp)
    80202e42:	e1a2                	sd	s0,192(sp)
    80202e44:	fd26                	sd	s1,184(sp)
    80202e46:	f94a                	sd	s2,176(sp)
    80202e48:	f54e                	sd	s3,168(sp)
    80202e4a:	f152                	sd	s4,160(sp)
    80202e4c:	ed56                	sd	s5,152(sp)
    80202e4e:	e95a                	sd	s6,144(sp)
    80202e50:	e55e                	sd	s7,136(sp)
    80202e52:	e162                	sd	s8,128(sp)
    80202e54:	fce6                	sd	s9,120(sp)
    80202e56:	0980                	addi	s0,sp,208
    80202e58:	878a                	mv	a5,sp
    80202e5a:	84be                	mv	s1,a5
    printf("[PT TEST] 创建页表...\n");
    80202e5c:	00018517          	auipc	a0,0x18
    80202e60:	4ac50513          	addi	a0,a0,1196 # 8021b308 <user_test_table+0x780>
    80202e64:	ffffe097          	auipc	ra,0xffffe
    80202e68:	41a080e7          	jalr	1050(ra) # 8020127e <printf>
    pagetable_t pt = create_pagetable();
    80202e6c:	fffff097          	auipc	ra,0xfffff
    80202e70:	31e080e7          	jalr	798(ra) # 8020218a <create_pagetable>
    80202e74:	f8a43423          	sd	a0,-120(s0)
    assert(pt != 0);
    80202e78:	f8843783          	ld	a5,-120(s0)
    80202e7c:	e79d                	bnez	a5,80202eaa <test_pagetable+0x6c>
    80202e7e:	14900613          	li	a2,329
    80202e82:	00018597          	auipc	a1,0x18
    80202e86:	4a658593          	addi	a1,a1,1190 # 8021b328 <user_test_table+0x7a0>
    80202e8a:	00018517          	auipc	a0,0x18
    80202e8e:	4a650513          	addi	a0,a0,1190 # 8021b330 <user_test_table+0x7a8>
    80202e92:	ffffe097          	auipc	ra,0xffffe
    80202e96:	3ec080e7          	jalr	1004(ra) # 8020127e <printf>
    80202e9a:	00018517          	auipc	a0,0x18
    80202e9e:	4be50513          	addi	a0,a0,1214 # 8021b358 <user_test_table+0x7d0>
    80202ea2:	fffff097          	auipc	ra,0xfffff
    80202ea6:	ffe080e7          	jalr	-2(ra) # 80201ea0 <panic>
    printf("[PT TEST] 页表创建通过\n");
    80202eaa:	00018517          	auipc	a0,0x18
    80202eae:	4b650513          	addi	a0,a0,1206 # 8021b360 <user_test_table+0x7d8>
    80202eb2:	ffffe097          	auipc	ra,0xffffe
    80202eb6:	3cc080e7          	jalr	972(ra) # 8020127e <printf>
    uint64 va[] = {
    80202eba:	00018797          	auipc	a5,0x18
    80202ebe:	66678793          	addi	a5,a5,1638 # 8021b520 <user_test_table+0x998>
    80202ec2:	638c                	ld	a1,0(a5)
    80202ec4:	6790                	ld	a2,8(a5)
    80202ec6:	6b94                	ld	a3,16(a5)
    80202ec8:	6f98                	ld	a4,24(a5)
    80202eca:	739c                	ld	a5,32(a5)
    80202ecc:	f2b43c23          	sd	a1,-200(s0)
    80202ed0:	f4c43023          	sd	a2,-192(s0)
    80202ed4:	f4d43423          	sd	a3,-184(s0)
    80202ed8:	f4e43823          	sd	a4,-176(s0)
    80202edc:	f4f43c23          	sd	a5,-168(s0)
    int n = sizeof(va) / sizeof(va[0]);
    80202ee0:	4795                	li	a5,5
    80202ee2:	f8f42223          	sw	a5,-124(s0)
    uint64 pa[n];
    80202ee6:	f8442783          	lw	a5,-124(s0)
    80202eea:	873e                	mv	a4,a5
    80202eec:	177d                	addi	a4,a4,-1
    80202eee:	f6e43c23          	sd	a4,-136(s0)
    80202ef2:	873e                	mv	a4,a5
    80202ef4:	8c3a                	mv	s8,a4
    80202ef6:	4c81                	li	s9,0
    80202ef8:	03ac5713          	srli	a4,s8,0x3a
    80202efc:	006c9a93          	slli	s5,s9,0x6
    80202f00:	01576ab3          	or	s5,a4,s5
    80202f04:	006c1a13          	slli	s4,s8,0x6
    80202f08:	873e                	mv	a4,a5
    80202f0a:	8b3a                	mv	s6,a4
    80202f0c:	4b81                	li	s7,0
    80202f0e:	03ab5713          	srli	a4,s6,0x3a
    80202f12:	006b9993          	slli	s3,s7,0x6
    80202f16:	013769b3          	or	s3,a4,s3
    80202f1a:	006b1913          	slli	s2,s6,0x6
    80202f1e:	078e                	slli	a5,a5,0x3
    80202f20:	07bd                	addi	a5,a5,15
    80202f22:	8391                	srli	a5,a5,0x4
    80202f24:	0792                	slli	a5,a5,0x4
    80202f26:	40f10133          	sub	sp,sp,a5
    80202f2a:	878a                	mv	a5,sp
    80202f2c:	079d                	addi	a5,a5,7
    80202f2e:	838d                	srli	a5,a5,0x3
    80202f30:	078e                	slli	a5,a5,0x3
    80202f32:	f6f43823          	sd	a5,-144(s0)
    for (int i = 0; i < n; i++) {
    80202f36:	f8042e23          	sw	zero,-100(s0)
    80202f3a:	aa35                	j	80203076 <test_pagetable+0x238>
        pa[i] = (uint64)alloc_page();
    80202f3c:	00001097          	auipc	ra,0x1
    80202f40:	8da080e7          	jalr	-1830(ra) # 80203816 <alloc_page>
    80202f44:	87aa                	mv	a5,a0
    80202f46:	86be                	mv	a3,a5
    80202f48:	f7043703          	ld	a4,-144(s0)
    80202f4c:	f9c42783          	lw	a5,-100(s0)
    80202f50:	078e                	slli	a5,a5,0x3
    80202f52:	97ba                	add	a5,a5,a4
    80202f54:	e394                	sd	a3,0(a5)
        assert(pa[i]);
    80202f56:	f7043703          	ld	a4,-144(s0)
    80202f5a:	f9c42783          	lw	a5,-100(s0)
    80202f5e:	078e                	slli	a5,a5,0x3
    80202f60:	97ba                	add	a5,a5,a4
    80202f62:	639c                	ld	a5,0(a5)
    80202f64:	e79d                	bnez	a5,80202f92 <test_pagetable+0x154>
    80202f66:	15a00613          	li	a2,346
    80202f6a:	00018597          	auipc	a1,0x18
    80202f6e:	3be58593          	addi	a1,a1,958 # 8021b328 <user_test_table+0x7a0>
    80202f72:	00018517          	auipc	a0,0x18
    80202f76:	3be50513          	addi	a0,a0,958 # 8021b330 <user_test_table+0x7a8>
    80202f7a:	ffffe097          	auipc	ra,0xffffe
    80202f7e:	304080e7          	jalr	772(ra) # 8020127e <printf>
    80202f82:	00018517          	auipc	a0,0x18
    80202f86:	3d650513          	addi	a0,a0,982 # 8021b358 <user_test_table+0x7d0>
    80202f8a:	fffff097          	auipc	ra,0xfffff
    80202f8e:	f16080e7          	jalr	-234(ra) # 80201ea0 <panic>
        printf("[PT TEST] 分配物理页 pa[%d]=0x%lx\n", i, pa[i]);
    80202f92:	f7043703          	ld	a4,-144(s0)
    80202f96:	f9c42783          	lw	a5,-100(s0)
    80202f9a:	078e                	slli	a5,a5,0x3
    80202f9c:	97ba                	add	a5,a5,a4
    80202f9e:	6398                	ld	a4,0(a5)
    80202fa0:	f9c42783          	lw	a5,-100(s0)
    80202fa4:	863a                	mv	a2,a4
    80202fa6:	85be                	mv	a1,a5
    80202fa8:	00018517          	auipc	a0,0x18
    80202fac:	3d850513          	addi	a0,a0,984 # 8021b380 <user_test_table+0x7f8>
    80202fb0:	ffffe097          	auipc	ra,0xffffe
    80202fb4:	2ce080e7          	jalr	718(ra) # 8020127e <printf>
        int ret = map_page(pt, va[i], pa[i], PTE_R | PTE_W);
    80202fb8:	f9c42783          	lw	a5,-100(s0)
    80202fbc:	078e                	slli	a5,a5,0x3
    80202fbe:	fa078793          	addi	a5,a5,-96
    80202fc2:	97a2                	add	a5,a5,s0
    80202fc4:	f987b583          	ld	a1,-104(a5)
    80202fc8:	f7043703          	ld	a4,-144(s0)
    80202fcc:	f9c42783          	lw	a5,-100(s0)
    80202fd0:	078e                	slli	a5,a5,0x3
    80202fd2:	97ba                	add	a5,a5,a4
    80202fd4:	639c                	ld	a5,0(a5)
    80202fd6:	4699                	li	a3,6
    80202fd8:	863e                	mv	a2,a5
    80202fda:	f8843503          	ld	a0,-120(s0)
    80202fde:	fffff097          	auipc	ra,0xfffff
    80202fe2:	3fa080e7          	jalr	1018(ra) # 802023d8 <map_page>
    80202fe6:	87aa                	mv	a5,a0
    80202fe8:	f6f42223          	sw	a5,-156(s0)
        printf("[PT TEST] 映射 va=0x%lx -> pa=0x%lx %s\n", va[i], pa[i], ret == 0 ? "成功" : "失败");
    80202fec:	f9c42783          	lw	a5,-100(s0)
    80202ff0:	078e                	slli	a5,a5,0x3
    80202ff2:	fa078793          	addi	a5,a5,-96
    80202ff6:	97a2                	add	a5,a5,s0
    80202ff8:	f987b583          	ld	a1,-104(a5)
    80202ffc:	f7043703          	ld	a4,-144(s0)
    80203000:	f9c42783          	lw	a5,-100(s0)
    80203004:	078e                	slli	a5,a5,0x3
    80203006:	97ba                	add	a5,a5,a4
    80203008:	6398                	ld	a4,0(a5)
    8020300a:	f6442783          	lw	a5,-156(s0)
    8020300e:	2781                	sext.w	a5,a5
    80203010:	e791                	bnez	a5,8020301c <test_pagetable+0x1de>
    80203012:	00018797          	auipc	a5,0x18
    80203016:	39678793          	addi	a5,a5,918 # 8021b3a8 <user_test_table+0x820>
    8020301a:	a029                	j	80203024 <test_pagetable+0x1e6>
    8020301c:	00018797          	auipc	a5,0x18
    80203020:	39478793          	addi	a5,a5,916 # 8021b3b0 <user_test_table+0x828>
    80203024:	86be                	mv	a3,a5
    80203026:	863a                	mv	a2,a4
    80203028:	00018517          	auipc	a0,0x18
    8020302c:	39050513          	addi	a0,a0,912 # 8021b3b8 <user_test_table+0x830>
    80203030:	ffffe097          	auipc	ra,0xffffe
    80203034:	24e080e7          	jalr	590(ra) # 8020127e <printf>
        assert(ret == 0);
    80203038:	f6442783          	lw	a5,-156(s0)
    8020303c:	2781                	sext.w	a5,a5
    8020303e:	c79d                	beqz	a5,8020306c <test_pagetable+0x22e>
    80203040:	15e00613          	li	a2,350
    80203044:	00018597          	auipc	a1,0x18
    80203048:	2e458593          	addi	a1,a1,740 # 8021b328 <user_test_table+0x7a0>
    8020304c:	00018517          	auipc	a0,0x18
    80203050:	2e450513          	addi	a0,a0,740 # 8021b330 <user_test_table+0x7a8>
    80203054:	ffffe097          	auipc	ra,0xffffe
    80203058:	22a080e7          	jalr	554(ra) # 8020127e <printf>
    8020305c:	00018517          	auipc	a0,0x18
    80203060:	2fc50513          	addi	a0,a0,764 # 8021b358 <user_test_table+0x7d0>
    80203064:	fffff097          	auipc	ra,0xfffff
    80203068:	e3c080e7          	jalr	-452(ra) # 80201ea0 <panic>
    for (int i = 0; i < n; i++) {
    8020306c:	f9c42783          	lw	a5,-100(s0)
    80203070:	2785                	addiw	a5,a5,1
    80203072:	f8f42e23          	sw	a5,-100(s0)
    80203076:	f9c42783          	lw	a5,-100(s0)
    8020307a:	873e                	mv	a4,a5
    8020307c:	f8442783          	lw	a5,-124(s0)
    80203080:	2701                	sext.w	a4,a4
    80203082:	2781                	sext.w	a5,a5
    80203084:	eaf74ce3          	blt	a4,a5,80202f3c <test_pagetable+0xfe>
    printf("[PT TEST] 多级映射测试通过\n");
    80203088:	00018517          	auipc	a0,0x18
    8020308c:	36050513          	addi	a0,a0,864 # 8021b3e8 <user_test_table+0x860>
    80203090:	ffffe097          	auipc	ra,0xffffe
    80203094:	1ee080e7          	jalr	494(ra) # 8020127e <printf>
    for (int i = 0; i < n; i++) {
    80203098:	f8042c23          	sw	zero,-104(s0)
    8020309c:	a861                	j	80203134 <test_pagetable+0x2f6>
        pte_t *pte = walk_lookup(pt, va[i]);
    8020309e:	f9842783          	lw	a5,-104(s0)
    802030a2:	078e                	slli	a5,a5,0x3
    802030a4:	fa078793          	addi	a5,a5,-96
    802030a8:	97a2                	add	a5,a5,s0
    802030aa:	f987b783          	ld	a5,-104(a5)
    802030ae:	85be                	mv	a1,a5
    802030b0:	f8843503          	ld	a0,-120(s0)
    802030b4:	fffff097          	auipc	ra,0xfffff
    802030b8:	112080e7          	jalr	274(ra) # 802021c6 <walk_lookup>
    802030bc:	f6a43423          	sd	a0,-152(s0)
        if (pte && (*pte & PTE_V)) {
    802030c0:	f6843783          	ld	a5,-152(s0)
    802030c4:	c3b1                	beqz	a5,80203108 <test_pagetable+0x2ca>
    802030c6:	f6843783          	ld	a5,-152(s0)
    802030ca:	639c                	ld	a5,0(a5)
    802030cc:	8b85                	andi	a5,a5,1
    802030ce:	cf8d                	beqz	a5,80203108 <test_pagetable+0x2ca>
            printf("[PT TEST] 检查映射: va=0x%lx -> pa=0x%lx, pte=0x%lx\n", va[i], PTE2PA(*pte), *pte);
    802030d0:	f9842783          	lw	a5,-104(s0)
    802030d4:	078e                	slli	a5,a5,0x3
    802030d6:	fa078793          	addi	a5,a5,-96
    802030da:	97a2                	add	a5,a5,s0
    802030dc:	f987b703          	ld	a4,-104(a5)
    802030e0:	f6843783          	ld	a5,-152(s0)
    802030e4:	639c                	ld	a5,0(a5)
    802030e6:	83a9                	srli	a5,a5,0xa
    802030e8:	00c79613          	slli	a2,a5,0xc
    802030ec:	f6843783          	ld	a5,-152(s0)
    802030f0:	639c                	ld	a5,0(a5)
    802030f2:	86be                	mv	a3,a5
    802030f4:	85ba                	mv	a1,a4
    802030f6:	00018517          	auipc	a0,0x18
    802030fa:	31a50513          	addi	a0,a0,794 # 8021b410 <user_test_table+0x888>
    802030fe:	ffffe097          	auipc	ra,0xffffe
    80203102:	180080e7          	jalr	384(ra) # 8020127e <printf>
    80203106:	a015                	j	8020312a <test_pagetable+0x2ec>
            printf("[PT TEST] 检查映射: va=0x%lx 未映射\n", va[i]);
    80203108:	f9842783          	lw	a5,-104(s0)
    8020310c:	078e                	slli	a5,a5,0x3
    8020310e:	fa078793          	addi	a5,a5,-96
    80203112:	97a2                	add	a5,a5,s0
    80203114:	f987b783          	ld	a5,-104(a5)
    80203118:	85be                	mv	a1,a5
    8020311a:	00018517          	auipc	a0,0x18
    8020311e:	33650513          	addi	a0,a0,822 # 8021b450 <user_test_table+0x8c8>
    80203122:	ffffe097          	auipc	ra,0xffffe
    80203126:	15c080e7          	jalr	348(ra) # 8020127e <printf>
    for (int i = 0; i < n; i++) {
    8020312a:	f9842783          	lw	a5,-104(s0)
    8020312e:	2785                	addiw	a5,a5,1
    80203130:	f8f42c23          	sw	a5,-104(s0)
    80203134:	f9842783          	lw	a5,-104(s0)
    80203138:	873e                	mv	a4,a5
    8020313a:	f8442783          	lw	a5,-124(s0)
    8020313e:	2701                	sext.w	a4,a4
    80203140:	2781                	sext.w	a5,a5
    80203142:	f4f74ee3          	blt	a4,a5,8020309e <test_pagetable+0x260>
    printf("[PT TEST] 打印页表结构（递归）\n");
    80203146:	00018517          	auipc	a0,0x18
    8020314a:	33a50513          	addi	a0,a0,826 # 8021b480 <user_test_table+0x8f8>
    8020314e:	ffffe097          	auipc	ra,0xffffe
    80203152:	130080e7          	jalr	304(ra) # 8020127e <printf>
    print_pagetable(pt, 0, 0);
    80203156:	4601                	li	a2,0
    80203158:	4581                	li	a1,0
    8020315a:	f8843503          	ld	a0,-120(s0)
    8020315e:	fffff097          	auipc	ra,0xfffff
    80203162:	7fc080e7          	jalr	2044(ra) # 8020295a <print_pagetable>
    for (int i = 0; i < n; i++) {
    80203166:	f8042a23          	sw	zero,-108(s0)
    8020316a:	a0a9                	j	802031b4 <test_pagetable+0x376>
        free_page((void*)pa[i]);
    8020316c:	f7043703          	ld	a4,-144(s0)
    80203170:	f9442783          	lw	a5,-108(s0)
    80203174:	078e                	slli	a5,a5,0x3
    80203176:	97ba                	add	a5,a5,a4
    80203178:	639c                	ld	a5,0(a5)
    8020317a:	853e                	mv	a0,a5
    8020317c:	00000097          	auipc	ra,0x0
    80203180:	706080e7          	jalr	1798(ra) # 80203882 <free_page>
        printf("[PT TEST] 释放物理页 pa[%d]=0x%lx\n", i, pa[i]);
    80203184:	f7043703          	ld	a4,-144(s0)
    80203188:	f9442783          	lw	a5,-108(s0)
    8020318c:	078e                	slli	a5,a5,0x3
    8020318e:	97ba                	add	a5,a5,a4
    80203190:	6398                	ld	a4,0(a5)
    80203192:	f9442783          	lw	a5,-108(s0)
    80203196:	863a                	mv	a2,a4
    80203198:	85be                	mv	a1,a5
    8020319a:	00018517          	auipc	a0,0x18
    8020319e:	31650513          	addi	a0,a0,790 # 8021b4b0 <user_test_table+0x928>
    802031a2:	ffffe097          	auipc	ra,0xffffe
    802031a6:	0dc080e7          	jalr	220(ra) # 8020127e <printf>
    for (int i = 0; i < n; i++) {
    802031aa:	f9442783          	lw	a5,-108(s0)
    802031ae:	2785                	addiw	a5,a5,1
    802031b0:	f8f42a23          	sw	a5,-108(s0)
    802031b4:	f9442783          	lw	a5,-108(s0)
    802031b8:	873e                	mv	a4,a5
    802031ba:	f8442783          	lw	a5,-124(s0)
    802031be:	2701                	sext.w	a4,a4
    802031c0:	2781                	sext.w	a5,a5
    802031c2:	faf745e3          	blt	a4,a5,8020316c <test_pagetable+0x32e>
    free_pagetable(pt);
    802031c6:	f8843503          	ld	a0,-120(s0)
    802031ca:	fffff097          	auipc	ra,0xfffff
    802031ce:	382080e7          	jalr	898(ra) # 8020254c <free_pagetable>
    printf("[PT TEST] 释放页表完成\n");
    802031d2:	00018517          	auipc	a0,0x18
    802031d6:	30650513          	addi	a0,a0,774 # 8021b4d8 <user_test_table+0x950>
    802031da:	ffffe097          	auipc	ra,0xffffe
    802031de:	0a4080e7          	jalr	164(ra) # 8020127e <printf>
    printf("[PT TEST] 所有页表测试通过\n");
    802031e2:	00018517          	auipc	a0,0x18
    802031e6:	31650513          	addi	a0,a0,790 # 8021b4f8 <user_test_table+0x970>
    802031ea:	ffffe097          	auipc	ra,0xffffe
    802031ee:	094080e7          	jalr	148(ra) # 8020127e <printf>
    802031f2:	8126                	mv	sp,s1
}
    802031f4:	0001                	nop
    802031f6:	f3040113          	addi	sp,s0,-208
    802031fa:	60ae                	ld	ra,200(sp)
    802031fc:	640e                	ld	s0,192(sp)
    802031fe:	74ea                	ld	s1,184(sp)
    80203200:	794a                	ld	s2,176(sp)
    80203202:	79aa                	ld	s3,168(sp)
    80203204:	7a0a                	ld	s4,160(sp)
    80203206:	6aea                	ld	s5,152(sp)
    80203208:	6b4a                	ld	s6,144(sp)
    8020320a:	6baa                	ld	s7,136(sp)
    8020320c:	6c0a                	ld	s8,128(sp)
    8020320e:	7ce6                	ld	s9,120(sp)
    80203210:	6169                	addi	sp,sp,208
    80203212:	8082                	ret

0000000080203214 <check_mapping>:
void check_mapping(uint64 va) {
    80203214:	7179                	addi	sp,sp,-48
    80203216:	f406                	sd	ra,40(sp)
    80203218:	f022                	sd	s0,32(sp)
    8020321a:	1800                	addi	s0,sp,48
    8020321c:	fca43c23          	sd	a0,-40(s0)
    pte_t *pte = walk_lookup(kernel_pagetable, va);
    80203220:	00041797          	auipc	a5,0x41
    80203224:	ed078793          	addi	a5,a5,-304 # 802440f0 <kernel_pagetable>
    80203228:	639c                	ld	a5,0(a5)
    8020322a:	fd843583          	ld	a1,-40(s0)
    8020322e:	853e                	mv	a0,a5
    80203230:	fffff097          	auipc	ra,0xfffff
    80203234:	f96080e7          	jalr	-106(ra) # 802021c6 <walk_lookup>
    80203238:	fea43423          	sd	a0,-24(s0)
    if(pte && (*pte & PTE_V)) {
    8020323c:	fe843783          	ld	a5,-24(s0)
    80203240:	cbb9                	beqz	a5,80203296 <check_mapping+0x82>
    80203242:	fe843783          	ld	a5,-24(s0)
    80203246:	639c                	ld	a5,0(a5)
    80203248:	8b85                	andi	a5,a5,1
    8020324a:	c7b1                	beqz	a5,80203296 <check_mapping+0x82>
        debug("Address 0x%lx is mapped: pte=0x%lx\n", va, *pte);
    8020324c:	fe843783          	ld	a5,-24(s0)
    80203250:	639c                	ld	a5,0(a5)
    80203252:	863e                	mv	a2,a5
    80203254:	fd843583          	ld	a1,-40(s0)
    80203258:	00018517          	auipc	a0,0x18
    8020325c:	2f050513          	addi	a0,a0,752 # 8021b548 <user_test_table+0x9c0>
    80203260:	fffff097          	auipc	ra,0xfffff
    80203264:	c1c080e7          	jalr	-996(ra) # 80201e7c <debug>
		volatile unsigned char *p = (unsigned char*)va;
    80203268:	fd843783          	ld	a5,-40(s0)
    8020326c:	fef43023          	sd	a5,-32(s0)
        debug("Try to read [0x%lx]: 0x%02x\n", va, *p);
    80203270:	fe043783          	ld	a5,-32(s0)
    80203274:	0007c783          	lbu	a5,0(a5)
    80203278:	0ff7f793          	zext.b	a5,a5
    8020327c:	2781                	sext.w	a5,a5
    8020327e:	863e                	mv	a2,a5
    80203280:	fd843583          	ld	a1,-40(s0)
    80203284:	00018517          	auipc	a0,0x18
    80203288:	2ec50513          	addi	a0,a0,748 # 8021b570 <user_test_table+0x9e8>
    8020328c:	fffff097          	auipc	ra,0xfffff
    80203290:	bf0080e7          	jalr	-1040(ra) # 80201e7c <debug>
    if(pte && (*pte & PTE_V)) {
    80203294:	a821                	j	802032ac <check_mapping+0x98>
        debug("Address 0x%lx is NOT mapped\n", va);
    80203296:	fd843583          	ld	a1,-40(s0)
    8020329a:	00018517          	auipc	a0,0x18
    8020329e:	2f650513          	addi	a0,a0,758 # 8021b590 <user_test_table+0xa08>
    802032a2:	fffff097          	auipc	ra,0xfffff
    802032a6:	bda080e7          	jalr	-1062(ra) # 80201e7c <debug>
}
    802032aa:	0001                	nop
    802032ac:	0001                	nop
    802032ae:	70a2                	ld	ra,40(sp)
    802032b0:	7402                	ld	s0,32(sp)
    802032b2:	6145                	addi	sp,sp,48
    802032b4:	8082                	ret

00000000802032b6 <check_is_mapped>:
int check_is_mapped(uint64 va) {
    802032b6:	7179                	addi	sp,sp,-48
    802032b8:	f406                	sd	ra,40(sp)
    802032ba:	f022                	sd	s0,32(sp)
    802032bc:	1800                	addi	s0,sp,48
    802032be:	fca43c23          	sd	a0,-40(s0)
    pte_t *pte = walk_lookup(get_current_pagetable(), va);
    802032c2:	fffff097          	auipc	ra,0xfffff
    802032c6:	680080e7          	jalr	1664(ra) # 80202942 <get_current_pagetable>
    802032ca:	87aa                	mv	a5,a0
    802032cc:	fd843583          	ld	a1,-40(s0)
    802032d0:	853e                	mv	a0,a5
    802032d2:	fffff097          	auipc	ra,0xfffff
    802032d6:	ef4080e7          	jalr	-268(ra) # 802021c6 <walk_lookup>
    802032da:	fea43423          	sd	a0,-24(s0)
    if (pte && (*pte & PTE_V)) {
    802032de:	fe843783          	ld	a5,-24(s0)
    802032e2:	c795                	beqz	a5,8020330e <check_is_mapped+0x58>
    802032e4:	fe843783          	ld	a5,-24(s0)
    802032e8:	639c                	ld	a5,0(a5)
    802032ea:	8b85                	andi	a5,a5,1
    802032ec:	c38d                	beqz	a5,8020330e <check_is_mapped+0x58>
        debug("Address 0x%lx is mapped: pte=0x%lx\n", va, *pte);
    802032ee:	fe843783          	ld	a5,-24(s0)
    802032f2:	639c                	ld	a5,0(a5)
    802032f4:	863e                	mv	a2,a5
    802032f6:	fd843583          	ld	a1,-40(s0)
    802032fa:	00018517          	auipc	a0,0x18
    802032fe:	24e50513          	addi	a0,a0,590 # 8021b548 <user_test_table+0x9c0>
    80203302:	fffff097          	auipc	ra,0xfffff
    80203306:	b7a080e7          	jalr	-1158(ra) # 80201e7c <debug>
        return 1;
    8020330a:	4785                	li	a5,1
    8020330c:	a821                	j	80203324 <check_is_mapped+0x6e>
        debug("Address 0x%lx is NOT mapped\n", va);
    8020330e:	fd843583          	ld	a1,-40(s0)
    80203312:	00018517          	auipc	a0,0x18
    80203316:	27e50513          	addi	a0,a0,638 # 8021b590 <user_test_table+0xa08>
    8020331a:	fffff097          	auipc	ra,0xfffff
    8020331e:	b62080e7          	jalr	-1182(ra) # 80201e7c <debug>
        return 0;
    80203322:	4781                	li	a5,0
}
    80203324:	853e                	mv	a0,a5
    80203326:	70a2                	ld	ra,40(sp)
    80203328:	7402                	ld	s0,32(sp)
    8020332a:	6145                	addi	sp,sp,48
    8020332c:	8082                	ret

000000008020332e <uvmcopy>:
int uvmcopy(pagetable_t old, pagetable_t new, uint64 sz) {
    8020332e:	711d                	addi	sp,sp,-96
    80203330:	ec86                	sd	ra,88(sp)
    80203332:	e8a2                	sd	s0,80(sp)
    80203334:	1080                	addi	s0,sp,96
    80203336:	faa43c23          	sd	a0,-72(s0)
    8020333a:	fab43823          	sd	a1,-80(s0)
    8020333e:	fac43423          	sd	a2,-88(s0)
    for (uint64 i = 0; i < sz; i += PGSIZE) {
    80203342:	fe043423          	sd	zero,-24(s0)
    80203346:	a8d1                	j	8020341a <uvmcopy+0xec>
        pte_t *pte = walk_lookup(old, i);
    80203348:	fe843583          	ld	a1,-24(s0)
    8020334c:	fb843503          	ld	a0,-72(s0)
    80203350:	fffff097          	auipc	ra,0xfffff
    80203354:	e76080e7          	jalr	-394(ra) # 802021c6 <walk_lookup>
    80203358:	fca43c23          	sd	a0,-40(s0)
        if (pte == 0 || (*pte & PTE_V) == 0)
    8020335c:	fd843783          	ld	a5,-40(s0)
    80203360:	c7d5                	beqz	a5,8020340c <uvmcopy+0xde>
    80203362:	fd843783          	ld	a5,-40(s0)
    80203366:	639c                	ld	a5,0(a5)
    80203368:	8b85                	andi	a5,a5,1
    8020336a:	c3cd                	beqz	a5,8020340c <uvmcopy+0xde>
        uint64 pa = PTE2PA(*pte);
    8020336c:	fd843783          	ld	a5,-40(s0)
    80203370:	639c                	ld	a5,0(a5)
    80203372:	83a9                	srli	a5,a5,0xa
    80203374:	07b2                	slli	a5,a5,0xc
    80203376:	fcf43823          	sd	a5,-48(s0)
        int flags = PTE_FLAGS(*pte);
    8020337a:	fd843783          	ld	a5,-40(s0)
    8020337e:	639c                	ld	a5,0(a5)
    80203380:	2781                	sext.w	a5,a5
    80203382:	3ff7f793          	andi	a5,a5,1023
    80203386:	fef42223          	sw	a5,-28(s0)
		if (i < 0x80000000)
    8020338a:	fe843703          	ld	a4,-24(s0)
    8020338e:	800007b7          	lui	a5,0x80000
    80203392:	fff7c793          	not	a5,a5
    80203396:	00e7e963          	bltu	a5,a4,802033a8 <uvmcopy+0x7a>
			flags |= PTE_U;
    8020339a:	fe442783          	lw	a5,-28(s0)
    8020339e:	0107e793          	ori	a5,a5,16
    802033a2:	fef42223          	sw	a5,-28(s0)
    802033a6:	a031                	j	802033b2 <uvmcopy+0x84>
			flags &= ~PTE_U;
    802033a8:	fe442783          	lw	a5,-28(s0)
    802033ac:	9bbd                	andi	a5,a5,-17
    802033ae:	fef42223          	sw	a5,-28(s0)
        void *mem = alloc_page();
    802033b2:	00000097          	auipc	ra,0x0
    802033b6:	464080e7          	jalr	1124(ra) # 80203816 <alloc_page>
    802033ba:	fca43423          	sd	a0,-56(s0)
        if (mem == 0)
    802033be:	fc843783          	ld	a5,-56(s0)
    802033c2:	e399                	bnez	a5,802033c8 <uvmcopy+0x9a>
            return -1; // 分配失败
    802033c4:	57fd                	li	a5,-1
    802033c6:	a08d                	j	80203428 <uvmcopy+0xfa>
        memmove(mem, (void*)pa, PGSIZE);
    802033c8:	fd043783          	ld	a5,-48(s0)
    802033cc:	6605                	lui	a2,0x1
    802033ce:	85be                	mv	a1,a5
    802033d0:	fc843503          	ld	a0,-56(s0)
    802033d4:	fffff097          	auipc	ra,0xfffff
    802033d8:	bf6080e7          	jalr	-1034(ra) # 80201fca <memmove>
        if (map_page(new, i, (uint64)mem, flags) != 0) {
    802033dc:	fc843783          	ld	a5,-56(s0)
    802033e0:	fe442703          	lw	a4,-28(s0)
    802033e4:	86ba                	mv	a3,a4
    802033e6:	863e                	mv	a2,a5
    802033e8:	fe843583          	ld	a1,-24(s0)
    802033ec:	fb043503          	ld	a0,-80(s0)
    802033f0:	fffff097          	auipc	ra,0xfffff
    802033f4:	fe8080e7          	jalr	-24(ra) # 802023d8 <map_page>
    802033f8:	87aa                	mv	a5,a0
    802033fa:	cb91                	beqz	a5,8020340e <uvmcopy+0xe0>
            free_page(mem);
    802033fc:	fc843503          	ld	a0,-56(s0)
    80203400:	00000097          	auipc	ra,0x0
    80203404:	482080e7          	jalr	1154(ra) # 80203882 <free_page>
            return -1;
    80203408:	57fd                	li	a5,-1
    8020340a:	a839                	j	80203428 <uvmcopy+0xfa>
            continue; // 跳过未分配的页
    8020340c:	0001                	nop
    for (uint64 i = 0; i < sz; i += PGSIZE) {
